; Listing generated by Microsoft (R) Optimizing Compiler Version 16.00.40219.01 

	TITLE	C:\A15\facultate\forth\atlast-1.2\atlast.c
	.686P
	.XMM
	include listing.inc
	.model	flat

INCLUDELIB LIBCMT
INCLUDELIB OLDNAMES

PUBLIC	_atl__Pcr
PUBLIC	_atl_memstat
PUBLIC	_opterr
PUBLIC	_optind
PUBLIC	_optopt
PUBLIC	_atl_stklen
PUBLIC	_atl_rstklen
PUBLIC	_atl_heaplen
PUBLIC	_atl_ltempstr
PUBLIC	_atl_ntempstr
PUBLIC	_atl_trace
PUBLIC	_atl_walkback
PUBLIC	_atl_comment
PUBLIC	_atl_redef
PUBLIC	_atl_errline
PUBLIC	_atl__sk
PUBLIC	_atl__rk
PUBLIC	_atl__hb
PUBLIC	_atl__dh
PUBLIC	_atl__dp
PUBLIC	_atl__ts
PUBLIC	_atl__tn
PUBLIC	_atl__ip
PUBLIC	_atl__cw
PUBLIC	_atl__wd
_BSS	SEGMENT
$SG82854 DB	01H DUP (?)
	ALIGN	4

$SG82853 DB	01H DUP (?)
	ALIGN	4

$SG82850 DB	01H DUP (?)
	ALIGN	4

$SG82849 DB	01H DUP (?)
	ALIGN	4

$SG82847 DB	01H DUP (?)
	ALIGN	4

$SG82845 DB	01H DUP (?)
	ALIGN	4

$SG82843 DB	01H DUP (?)
	ALIGN	4

$SG82841 DB	01H DUP (?)
	ALIGN	4

$SG81829 DB	01H DUP (?)
_BSS	ENDS
_DATA	SEGMENT
COMM	_atl__sx:DWORD
COMM	_atl__sb:DWORD
COMM	___mingw_optreset:DWORD
COMM	_atl__hp:DWORD
COMM	_atl__ht:DWORD
COMM	_optarg:DWORD
COMM	_atl__hx:DWORD
COMM	_atl__hs:DWORD
COMM	_atl__rt:DWORD
COMM	_atl__rp:DWORD
COMM	_atl__rb:DWORD
COMM	_atl__st:DWORD
COMM	_atl__rx:DWORD
COMM	_atl__sp:DWORD
_DATA	ENDS
_BSS	SEGMENT
	ALIGN	4

$SG82015 DB	01H DUP (?)
	ALIGN	4

$SG82022 DB	01H DUP (?)
	ALIGN	4

$SG82031 DB	01H DUP (?)
	ALIGN	4

$SG82041 DB	01H DUP (?)
	ALIGN	4

$SG82060 DB	01H DUP (?)
	ALIGN	4

$SG82065 DB	01H DUP (?)
	ALIGN	4

$SG82074 DB	01H DUP (?)
	ALIGN	4

$SG82079 DB	01H DUP (?)
	ALIGN	4

_atl_trace DD	01H DUP (?)
_atl_comment DD	01H DUP (?)
_atl_errline DD	01H DUP (?)
_atl__sk DD	01H DUP (?)
_atl__rk DD	01H DUP (?)
_atl__hb DD	01H DUP (?)
_atl__dh DD	01H DUP (?)
_atl__dp DD	01H DUP (?)
_atl__ts DD	01H DUP (?)
_atl__tn DD	01H DUP (?)
_wback	DD	01H DUP (?)
_instream DD	01H DUP (?)
_atl__ip DD	01H DUP (?)
_atl__cw DD	01H DUP (?)
_evalstat DD	01H DUP (?)
_defpend DD	01H DUP (?)
_forgetpend DD	01H DUP (?)
_tickpend DD	01H DUP (?)
_ctickpend DD	01H DUP (?)
_cbrackpend DD	01H DUP (?)
_atl__wd DD	01H DUP (?)
_stringlit DD	01H DUP (?)
_broken	DD	01H DUP (?)
_BSS	ENDS
CONST	SEGMENT
_recargchar DB	'option requires an argument -- %c', 00H
	ORG $+2
_recargstring DB 'option requires an argument -- %s', 00H
	ORG $+2
_ambig	DB	'ambiguous option -- %.*s', 00H
	ORG $+3
_noarg	DB	'option doesn''t take an argument -- %.*s', 00H
_illoptchar DB	'unknown option -- %c', 00H
	ORG $+3
_illoptstring DB 'unknown option -- %s', 00H
CONST	ENDS
_DATA	SEGMENT
_opterr	DD	01H
_optind	DD	01H
_optopt	DD	03fH
_place	DD	FLAT:$SG81829
_nonopt_start DD 0ffffffffH
_nonopt_end DD	0ffffffffH
$SG81845 DB	'%s: ', 00H
	ORG $+3
$SG81850 DB	0aH, 00H
	ORG $+2
?posixly_correct@?1??getopt_internal@@9@9 DD 0ffffffffH	; `getopt_internal'::`2'::posixly_correct
$SG82002 DB	'POSIXLY_CORRECT', 00H
_atl_stklen DD	064H
_atl_rstklen DD	064H
_atl_heaplen DD	03e8H
_atl_ltempstr DD 0100H
_atl_ntempstr DD 04H
_atl_walkback DD 0ffffffffH
_atl_redef DD	0ffffffffH
$SG82842 DB	'r', 00H
	ORG $+2
$SG82844 DB	'r+', 00H
	ORG $+1
$SG82846 DB	'rb', 00H
	ORG $+1
$SG82848 DB	'r+b', 00H
$SG82851 DB	'w', 00H
	ORG $+2
$SG82852 DB	'w+', 00H
	ORG $+1
$SG82855 DB	'wb', 00H
	ORG $+1
$SG82856 DB	'w+b', 00H
_base	DD	0aH
_fopenmodes DD	FLAT:$SG82841
	DD	FLAT:$SG82842
	DD	FLAT:$SG82843
	DD	FLAT:$SG82844
	DD	FLAT:$SG82845
	DD	FLAT:$SG82846
	DD	FLAT:$SG82847
	DD	FLAT:$SG82848
	DD	FLAT:$SG82849
	DD	FLAT:$SG82850
	DD	FLAT:$SG82851
	DD	FLAT:$SG82852
	DD	FLAT:$SG82853
	DD	FLAT:$SG82854
	DD	FLAT:$SG82855
	DD	FLAT:$SG82856
$SG82899 DB	0aH, 0aH, 'Out of memory!  %u bytes requested.', 0aH, 00H
	ORG $+1
$SG82961 DB	0aH, 'Runaway string: %s', 0aH, 00H
	ORG $+3
$SG82964 DB	'\', 00H
	ORG $+2
$SG82969 DB	'(', 00H
	ORG $+2
$SG82984 DB	'%lf%c', 00H
	ORG $+2
?fmt@?1??atl_memstat@@9@9 DB '   %-12s %6ld    %6ld    %6ld       %3ld', 0aH
	DB	00H						; `atl_memstat'::`2'::fmt
	ORG $+2
$SG83019 DB	0aH, '             Memory Usage Summary', 0aH, 0aH, 00H
	ORG $+3
$SG83021 DB	'                 Current   Maximum    Items     Percent', 0aH
	DB	00H
	ORG $+3
$SG83023 DB	'  Memory Area     usage     used    allocated   in use ', 0aH
	DB	00H
	ORG $+3
$SG83027 DB	'Stack', 00H
	ORG $+2
$SG83031 DB	'Return stack', 00H
	ORG $+3
$SG83035 DB	'Heap', 00H
	ORG $+3
$SG83286 DB	'Subscript out of range', 00H
	ORG $+1
$SG83304 DB	'Bad array element size', 00H
	ORG $+1
$SG83306 DB	'Bad array subscript count', 00H
	ORG $+2
$SG83312 DB	'Bad array dimension', 00H
$SG83332 DB	'"%s" ', 00H
	ORG $+2
$SG83519 DB	'%g ', 00H
$SG83675 DB	'%.16f ', 00H
	ORG $+1
$SG83790 DB	'%lX', 00H
$SG83791 DB	'%ld ', 00H
	ORG $+3
$SG83801 DB	'%lX', 00H
$SG83802 DB	'%ld ', 00H
	ORG $+3
$SG83806 DB	0aH, 00H
	ORG $+2
$SG83811 DB	'Stack: ', 00H
$SG83814 DB	'Empty.', 00H
	ORG $+1
$SG83820 DB	'%lX', 00H
$SG83821 DB	'%ld ', 00H
	ORG $+3
$SG83835 DB	'%s', 00H
	ORG $+1
$SG83846 DB	'%s', 00H
	ORG $+1
$SG83856 DB	0aH, '%s', 00H
$SG83859 DB	0aH, 00H
	ORG $+2
$SG83884 DB	0aH, 'Not a file', 0aH, 00H
	ORG $+3
$SG83905 DB	0aH, 'Not a file', 0aH, 00H
	ORG $+3
$SG83911 DB	0aH, 'File not open', 0aH, 00H
$SG83940 DB	0aH, 'Not a file', 0aH, 00H
	ORG $+3
$SG83946 DB	0aH, 'File not open', 0aH, 00H
$SG83967 DB	0aH, 'Not a file', 0aH, 00H
	ORG $+3
$SG83973 DB	0aH, 'File not open', 0aH, 00H
$SG83995 DB	0aH, 'Not a file', 0aH, 00H
	ORG $+3
$SG84001 DB	0aH, 'File not open', 0aH, 00H
$SG84020 DB	0aH, 'Not a file', 0aH, 00H
	ORG $+3
$SG84026 DB	0aH, 'File not open', 0aH, 00H
$SG84041 DB	0aH, 'Not a file', 0aH, 00H
	ORG $+3
$SG84047 DB	0aH, 'File not open', 0aH, 00H
$SG84060 DB	0aH, 'Not a file', 0aH, 00H
	ORG $+3
$SG84066 DB	0aH, 'File not open', 0aH, 00H
$SG84080 DB	0aH, 'Not a file', 0aH, 00H
	ORG $+3
$SG84086 DB	0aH, 'File not open', 0aH, 00H
$SG84100 DB	0aH, 'Not a file', 0aH, 00H
	ORG $+3
$SG84106 DB	0aH, 'File not open', 0aH, 00H
$SG84124 DB	0aH, 'Not a file', 0aH, 00H
	ORG $+3
$SG84130 DB	0aH, 'File not open', 0aH, 00H
$SG84291 DB	'%ld ', 00H
	ORG $+3
$SG84562 DB	'%s', 00H
	ORG $+1
$SG84620 DB	' ''%s'' undefined ', 00H
	ORG $+3
$SG84623 DB	0aH, 'Word not specified when expected.', 0aH, 00H
$SG84629 DB	0aH, 'Word requested by ` not on same input line.', 0aH, 00H
	ORG $+2
$SG84677 DB	0aH, '>LINK Foulup--wnext is not at zero!', 0aH, 00H
	ORG $+2
$SG84696 DB	0aH, 'LINK> Foulup--wnext is not at zero!', 0aH, 00H
	ORG $+2
$SG84768 DB	0aH, '%s', 00H
$SG84770 DB	0aH, 00H
	ORG $+2
$SG84780 DB	0aH, '%s', 00H
$SG84782 DB	0aH, 00H
	ORG $+2
$SG84834 DB	'0+', 00H
	ORG $+1
$SG84835 DB	'0-', 00H
	ORG $+1
$SG84836 DB	'0*', 00H
	ORG $+1
$SG84837 DB	'0/', 00H
	ORG $+1
$SG84838 DB	'0MOD', 00H
	ORG $+3
$SG84839 DB	'0/MOD', 00H
	ORG $+2
$SG84840 DB	'0MIN', 00H
	ORG $+3
$SG84841 DB	'0MAX', 00H
	ORG $+3
$SG84842 DB	'0NEGATE', 00H
$SG84843 DB	'0ABS', 00H
	ORG $+3
$SG84844 DB	'0=', 00H
	ORG $+1
$SG84845 DB	'0<>', 00H
$SG84846 DB	'0>', 00H
	ORG $+1
$SG84847 DB	'0<', 00H
	ORG $+1
$SG84848 DB	'0>=', 00H
$SG84849 DB	'0<=', 00H
$SG84850 DB	'0AND', 00H
	ORG $+3
$SG84851 DB	'0OR', 00H
$SG84852 DB	'0XOR', 00H
	ORG $+3
$SG84853 DB	'0NOT', 00H
	ORG $+3
$SG84854 DB	'0SHIFT', 00H
	ORG $+1
$SG84855 DB	'0DEPTH', 00H
	ORG $+1
$SG84856 DB	'0CLEAR', 00H
	ORG $+1
$SG84857 DB	'0DUP', 00H
	ORG $+3
$SG84858 DB	'0DROP', 00H
	ORG $+2
$SG84859 DB	'0SWAP', 00H
	ORG $+2
$SG84860 DB	'0OVER', 00H
	ORG $+2
$SG84861 DB	'0PICK', 00H
	ORG $+2
$SG84862 DB	'0ROT', 00H
	ORG $+3
$SG84863 DB	'0-ROT', 00H
	ORG $+2
$SG84864 DB	'0ROLL', 00H
	ORG $+2
$SG84865 DB	'0>R', 00H
$SG84866 DB	'0R>', 00H
$SG84867 DB	'0R@', 00H
$SG84868 DB	'01+', 00H
$SG84869 DB	'02+', 00H
$SG84870 DB	'01-', 00H
$SG84871 DB	'02-', 00H
$SG84872 DB	'02*', 00H
$SG84873 DB	'02/', 00H
$SG84874 DB	'00=', 00H
$SG84875 DB	'00<>', 00H
	ORG $+3
$SG84876 DB	'00>', 00H
$SG84877 DB	'00<', 00H
$SG84878 DB	'02DUP', 00H
	ORG $+2
$SG84879 DB	'02DROP', 00H
	ORG $+1
$SG84880 DB	'02SWAP', 00H
	ORG $+1
$SG84881 DB	'02OVER', 00H
	ORG $+1
$SG84882 DB	'02ROT', 00H
	ORG $+2
$SG84883 DB	'02VARIABLE', 00H
	ORG $+1
$SG84884 DB	'02CONSTANT', 00H
	ORG $+1
$SG84885 DB	'02!', 00H
$SG84886 DB	'02@', 00H
$SG84887 DB	'0VARIABLE', 00H
	ORG $+2
$SG84888 DB	'0CONSTANT', 00H
	ORG $+2
$SG84889 DB	'0!', 00H
	ORG $+1
$SG84890 DB	'0@', 00H
	ORG $+1
$SG84891 DB	'0+!', 00H
$SG84892 DB	'0ALLOT', 00H
	ORG $+1
$SG84893 DB	'0,', 00H
	ORG $+1
$SG84894 DB	'0C!', 00H
$SG84895 DB	'0C@', 00H
$SG84896 DB	'0C,', 00H
$SG84897 DB	'0C=', 00H
$SG84898 DB	'0HERE', 00H
	ORG $+2
$SG84899 DB	'0ARRAY', 00H
	ORG $+1
$SG84900 DB	'0(STRLIT)', 00H
	ORG $+2
$SG84901 DB	'0STRING', 00H
$SG84902 DB	'0STRCPY', 00H
$SG84903 DB	'0S!', 00H
$SG84904 DB	'0STRCAT', 00H
$SG84905 DB	'0S+', 00H
$SG84906 DB	'0STRLEN', 00H
$SG84907 DB	'0STRCMP', 00H
$SG84908 DB	'0STRCHAR', 00H
	ORG $+3
$SG84909 DB	'0SUBSTR', 00H
$SG84910 DB	'0COMPARE', 00H
	ORG $+3
$SG84911 DB	'0STRFORM', 00H
	ORG $+3
$SG84912 DB	'0FSTRFORM', 00H
	ORG $+2
$SG84913 DB	'0STRINT', 00H
$SG84914 DB	'0STRREAL', 00H
	ORG $+3
$SG84915 DB	'0(FLIT)', 00H
$SG84916 DB	'0F+', 00H
$SG84917 DB	'0F-', 00H
$SG84918 DB	'0F*', 00H
$SG84919 DB	'0F/', 00H
$SG84920 DB	'0FMIN', 00H
	ORG $+2
$SG84921 DB	'0FMAX', 00H
	ORG $+2
$SG84922 DB	'0FNEGATE', 00H
	ORG $+3
$SG84923 DB	'0FABS', 00H
	ORG $+2
$SG84924 DB	'0F=', 00H
$SG84925 DB	'0F<>', 00H
	ORG $+3
$SG84926 DB	'0F>', 00H
$SG84927 DB	'0F<', 00H
$SG84928 DB	'0F>=', 00H
	ORG $+3
$SG84929 DB	'0F<=', 00H
	ORG $+3
$SG84930 DB	'0F.', 00H
$SG84931 DB	'0FLOAT', 00H
	ORG $+1
$SG84932 DB	'0FIX', 00H
	ORG $+3
$SG84933 DB	'0ACOS', 00H
	ORG $+2
$SG84934 DB	'0ASIN', 00H
	ORG $+2
$SG84935 DB	'0ATAN', 00H
	ORG $+2
$SG84936 DB	'0ATAN2', 00H
	ORG $+1
$SG84937 DB	'0COS', 00H
	ORG $+3
$SG84938 DB	'0EXP', 00H
	ORG $+3
$SG84939 DB	'0LOG', 00H
	ORG $+3
$SG84940 DB	'0POW', 00H
	ORG $+3
$SG84941 DB	'0SIN', 00H
	ORG $+3
$SG84942 DB	'0SQRT', 00H
	ORG $+2
$SG84943 DB	'0TAN', 00H
	ORG $+3
$SG84944 DB	'0(NEST)', 00H
$SG84945 DB	'0EXIT', 00H
	ORG $+2
$SG84946 DB	'0(LIT)', 00H
	ORG $+1
$SG84947 DB	'0BRANCH', 00H
$SG84948 DB	'0?BRANCH', 00H
	ORG $+3
$SG84949 DB	'1IF', 00H
$SG84950 DB	'1ELSE', 00H
	ORG $+2
$SG84951 DB	'1THEN', 00H
	ORG $+2
$SG84952 DB	'0?DUP', 00H
	ORG $+2
$SG84953 DB	'1BEGIN', 00H
	ORG $+1
$SG84954 DB	'1UNTIL', 00H
	ORG $+1
$SG84955 DB	'1AGAIN', 00H
	ORG $+1
$SG84956 DB	'1WHILE', 00H
	ORG $+1
$SG84957 DB	'1REPEAT', 00H
$SG84958 DB	'1DO', 00H
$SG84959 DB	'1?DO', 00H
	ORG $+3
$SG84960 DB	'1LOOP', 00H
	ORG $+2
$SG84961 DB	'1+LOOP', 00H
	ORG $+1
$SG84962 DB	'0(XDO)', 00H
	ORG $+1
$SG84963 DB	'0(X?DO)', 00H
$SG84964 DB	'0(XLOOP)', 00H
	ORG $+3
$SG84965 DB	'0(+XLOOP)', 00H
	ORG $+2
$SG84966 DB	'0LEAVE', 00H
	ORG $+1
$SG84967 DB	'0I', 00H
	ORG $+1
$SG84968 DB	'0J', 00H
	ORG $+1
$SG84969 DB	'0QUIT', 00H
	ORG $+2
$SG84970 DB	'0ABORT', 00H
	ORG $+1
$SG84971 DB	'1ABORT"', 00H
$SG84972 DB	'0SYSTEM', 00H
$SG84973 DB	'0TRACE', 00H
	ORG $+1
$SG84974 DB	'0WALKBACK', 00H
	ORG $+2
$SG84975 DB	'0WORDSUSED', 00H
	ORG $+1
$SG84976 DB	'0WORDSUNUSED', 00H
	ORG $+3
$SG84977 DB	'0MEMSTAT', 00H
	ORG $+3
$SG84978 DB	'0:', 00H
	ORG $+1
$SG84979 DB	'1;', 00H
	ORG $+1
$SG84980 DB	'0IMMEDIATE', 00H
	ORG $+1
$SG84981 DB	'1[', 00H
	ORG $+1
$SG84982 DB	'0]', 00H
	ORG $+1
$SG84983 DB	'0CREATE', 00H
$SG84984 DB	'0FORGET', 00H
$SG84985 DB	'0DOES>', 00H
	ORG $+1
$SG84986 DB	'0''', 00H
	ORG $+1
$SG84987 DB	'1['']', 00H
	ORG $+3
$SG84988 DB	'0EXECUTE', 00H
	ORG $+3
$SG84989 DB	'0>BODY', 00H
	ORG $+1
$SG84990 DB	'0STATE', 00H
	ORG $+1
$SG84991 DB	'0FIND', 00H
	ORG $+2
$SG84992 DB	'0>NAME', 00H
	ORG $+1
$SG84993 DB	'0>LINK', 00H
	ORG $+1
$SG84994 DB	'0BODY>', 00H
	ORG $+1
$SG84995 DB	'0NAME>', 00H
	ORG $+1
$SG84996 DB	'0LINK>', 00H
	ORG $+1
$SG84997 DB	'0N>LINK', 00H
$SG84998 DB	'0L>NAME', 00H
$SG84999 DB	'0NAME>S!', 00H
	ORG $+3
$SG85000 DB	'0S>NAME!', 00H
	ORG $+3
$SG85001 DB	'1[COMPILE]', 00H
	ORG $+1
$SG85002 DB	'1LITERAL', 00H
	ORG $+3
$SG85003 DB	'0COMPILE', 00H
	ORG $+3
$SG85004 DB	'0<MARK', 00H
	ORG $+1
$SG85005 DB	'0<RESOLVE', 00H
	ORG $+2
$SG85006 DB	'0>MARK', 00H
	ORG $+1
$SG85007 DB	'0>RESOLVE', 00H
	ORG $+2
$SG85008 DB	'0.', 00H
	ORG $+1
$SG85009 DB	'0?', 00H
	ORG $+1
$SG85010 DB	'0CR', 00H
$SG85011 DB	'0.S', 00H
$SG85012 DB	'1."', 00H
$SG85013 DB	'1.(', 00H
$SG85014 DB	'0TYPE', 00H
	ORG $+2
$SG85015 DB	'0WORDS', 00H
	ORG $+1
$SG85016 DB	'0FILE', 00H
	ORG $+2
$SG85017 DB	'0FOPEN', 00H
	ORG $+1
$SG85018 DB	'0FCLOSE', 00H
$SG85019 DB	'0FDELETE', 00H
	ORG $+3
$SG85020 DB	'0FGETS', 00H
	ORG $+1
$SG85021 DB	'0FPUTS', 00H
	ORG $+1
$SG85022 DB	'0FREAD', 00H
	ORG $+1
$SG85023 DB	'0FWRITE', 00H
$SG85024 DB	'0FGETC', 00H
	ORG $+1
$SG85025 DB	'0FPUTC', 00H
	ORG $+1
$SG85026 DB	'0FTELL', 00H
	ORG $+1
$SG85027 DB	'0FSEEK', 00H
	ORG $+1
$SG85028 DB	'0FLOAD', 00H
	ORG $+1
$SG85029 DB	'0EVALUATE', 00H
	ORG $+2
$SG85055 DB	'Walkback:', 0aH, 00H
	ORG $+1
_primt	DD	FLAT:$SG84834
	DD	FLAT:_P_plus
	DD	FLAT:$SG84835
	DD	FLAT:_P_minus
	DD	FLAT:$SG84836
	DD	FLAT:_P_times
	DD	FLAT:$SG84837
	DD	FLAT:_P_div
	DD	FLAT:$SG84838
	DD	FLAT:_P_mod
	DD	FLAT:$SG84839
	DD	FLAT:_P_divmod
	DD	FLAT:$SG84840
	DD	FLAT:_P_min
	DD	FLAT:$SG84841
	DD	FLAT:_P_max
	DD	FLAT:$SG84842
	DD	FLAT:_P_neg
	DD	FLAT:$SG84843
	DD	FLAT:_P_abs
	DD	FLAT:$SG84844
	DD	FLAT:_P_equal
	DD	FLAT:$SG84845
	DD	FLAT:_P_unequal
	DD	FLAT:$SG84846
	DD	FLAT:_P_gtr
	DD	FLAT:$SG84847
	DD	FLAT:_P_lss
	DD	FLAT:$SG84848
	DD	FLAT:_P_geq
	DD	FLAT:$SG84849
	DD	FLAT:_P_leq
	DD	FLAT:$SG84850
	DD	FLAT:_P_and
	DD	FLAT:$SG84851
	DD	FLAT:_P_or
	DD	FLAT:$SG84852
	DD	FLAT:_P_xor
	DD	FLAT:$SG84853
	DD	FLAT:_P_not
	DD	FLAT:$SG84854
	DD	FLAT:_P_shift
	DD	FLAT:$SG84855
	DD	FLAT:_P_depth
	DD	FLAT:$SG84856
	DD	FLAT:_P_clear
	DD	FLAT:$SG84857
	DD	FLAT:_P_dup
	DD	FLAT:$SG84858
	DD	FLAT:_P_drop
	DD	FLAT:$SG84859
	DD	FLAT:_P_swap
	DD	FLAT:$SG84860
	DD	FLAT:_P_over
	DD	FLAT:$SG84861
	DD	FLAT:_P_pick
	DD	FLAT:$SG84862
	DD	FLAT:_P_rot
	DD	FLAT:$SG84863
	DD	FLAT:_P_minusrot
	DD	FLAT:$SG84864
	DD	FLAT:_P_roll
	DD	FLAT:$SG84865
	DD	FLAT:_P_tor
	DD	FLAT:$SG84866
	DD	FLAT:_P_rfrom
	DD	FLAT:$SG84867
	DD	FLAT:_P_rfetch
	DD	FLAT:$SG84868
	DD	FLAT:_P_1plus
	DD	FLAT:$SG84869
	DD	FLAT:_P_2plus
	DD	FLAT:$SG84870
	DD	FLAT:_P_1minus
	DD	FLAT:$SG84871
	DD	FLAT:_P_2minus
	DD	FLAT:$SG84872
	DD	FLAT:_P_2times
	DD	FLAT:$SG84873
	DD	FLAT:_P_2div
	DD	FLAT:$SG84874
	DD	FLAT:_P_0equal
	DD	FLAT:$SG84875
	DD	FLAT:_P_0notequal
	DD	FLAT:$SG84876
	DD	FLAT:_P_0gtr
	DD	FLAT:$SG84877
	DD	FLAT:_P_0lss
	DD	FLAT:$SG84878
	DD	FLAT:_P_2dup
	DD	FLAT:$SG84879
	DD	FLAT:_P_2drop
	DD	FLAT:$SG84880
	DD	FLAT:_P_2swap
	DD	FLAT:$SG84881
	DD	FLAT:_P_2over
	DD	FLAT:$SG84882
	DD	FLAT:_P_2rot
	DD	FLAT:$SG84883
	DD	FLAT:_P_2variable
	DD	FLAT:$SG84884
	DD	FLAT:_P_2constant
	DD	FLAT:$SG84885
	DD	FLAT:_P_2bang
	DD	FLAT:$SG84886
	DD	FLAT:_P_2at
	DD	FLAT:$SG84887
	DD	FLAT:_P_variable
	DD	FLAT:$SG84888
	DD	FLAT:_P_constant
	DD	FLAT:$SG84889
	DD	FLAT:_P_bang
	DD	FLAT:$SG84890
	DD	FLAT:_P_at
	DD	FLAT:$SG84891
	DD	FLAT:_P_plusbang
	DD	FLAT:$SG84892
	DD	FLAT:_P_allot
	DD	FLAT:$SG84893
	DD	FLAT:_P_comma
	DD	FLAT:$SG84894
	DD	FLAT:_P_cbang
	DD	FLAT:$SG84895
	DD	FLAT:_P_cat
	DD	FLAT:$SG84896
	DD	FLAT:_P_ccomma
	DD	FLAT:$SG84897
	DD	FLAT:_P_cequal
	DD	FLAT:$SG84898
	DD	FLAT:_P_here
	DD	FLAT:$SG84899
	DD	FLAT:_P_array
	DD	FLAT:$SG84900
	DD	FLAT:_P_strlit
	DD	FLAT:$SG84901
	DD	FLAT:_P_string
	DD	FLAT:$SG84902
	DD	FLAT:_P_strcpy
	DD	FLAT:$SG84903
	DD	FLAT:_P_strcpy
	DD	FLAT:$SG84904
	DD	FLAT:_P_strcat
	DD	FLAT:$SG84905
	DD	FLAT:_P_strcat
	DD	FLAT:$SG84906
	DD	FLAT:_P_strlen
	DD	FLAT:$SG84907
	DD	FLAT:_P_strcmp
	DD	FLAT:$SG84908
	DD	FLAT:_P_strchar
	DD	FLAT:$SG84909
	DD	FLAT:_P_substr
	DD	FLAT:$SG84910
	DD	FLAT:_P_strcmp
	DD	FLAT:$SG84911
	DD	FLAT:_P_strform
	DD	FLAT:$SG84912
	DD	FLAT:_P_fstrform
	DD	FLAT:$SG84913
	DD	FLAT:_P_strint
	DD	FLAT:$SG84914
	DD	FLAT:_P_strreal
	DD	FLAT:$SG84915
	DD	FLAT:_P_flit
	DD	FLAT:$SG84916
	DD	FLAT:_P_fplus
	DD	FLAT:$SG84917
	DD	FLAT:_P_fminus
	DD	FLAT:$SG84918
	DD	FLAT:_P_ftimes
	DD	FLAT:$SG84919
	DD	FLAT:_P_fdiv
	DD	FLAT:$SG84920
	DD	FLAT:_P_fmin
	DD	FLAT:$SG84921
	DD	FLAT:_P_fmax
	DD	FLAT:$SG84922
	DD	FLAT:_P_fneg
	DD	FLAT:$SG84923
	DD	FLAT:_P_fabs
	DD	FLAT:$SG84924
	DD	FLAT:_P_fequal
	DD	FLAT:$SG84925
	DD	FLAT:_P_funequal
	DD	FLAT:$SG84926
	DD	FLAT:_P_fgtr
	DD	FLAT:$SG84927
	DD	FLAT:_P_flss
	DD	FLAT:$SG84928
	DD	FLAT:_P_fgeq
	DD	FLAT:$SG84929
	DD	FLAT:_P_fleq
	DD	FLAT:$SG84930
	DD	FLAT:_P_fdot
	DD	FLAT:$SG84931
	DD	FLAT:_P_float
	DD	FLAT:$SG84932
	DD	FLAT:_P_fix
	DD	FLAT:$SG84933
	DD	FLAT:_P_acos
	DD	FLAT:$SG84934
	DD	FLAT:_P_asin
	DD	FLAT:$SG84935
	DD	FLAT:_P_atan
	DD	FLAT:$SG84936
	DD	FLAT:_P_atan2
	DD	FLAT:$SG84937
	DD	FLAT:_P_cos
	DD	FLAT:$SG84938
	DD	FLAT:_P_exp
	DD	FLAT:$SG84939
	DD	FLAT:_P_log
	DD	FLAT:$SG84940
	DD	FLAT:_P_pow
	DD	FLAT:$SG84941
	DD	FLAT:_P_sin
	DD	FLAT:$SG84942
	DD	FLAT:_P_sqrt
	DD	FLAT:$SG84943
	DD	FLAT:_P_tan
	DD	FLAT:$SG84944
	DD	FLAT:_P_nest
	DD	FLAT:$SG84945
	DD	FLAT:_P_exit
	DD	FLAT:$SG84946
	DD	FLAT:_P_dolit
	DD	FLAT:$SG84947
	DD	FLAT:_P_branch
	DD	FLAT:$SG84948
	DD	FLAT:_P_qbranch
	DD	FLAT:$SG84949
	DD	FLAT:_P_if
	DD	FLAT:$SG84950
	DD	FLAT:_P_else
	DD	FLAT:$SG84951
	DD	FLAT:_P_then
	DD	FLAT:$SG84952
	DD	FLAT:_P_qdup
	DD	FLAT:$SG84953
	DD	FLAT:_P_begin
	DD	FLAT:$SG84954
	DD	FLAT:_P_until
	DD	FLAT:$SG84955
	DD	FLAT:_P_again
	DD	FLAT:$SG84956
	DD	FLAT:_P_while
	DD	FLAT:$SG84957
	DD	FLAT:_P_repeat
	DD	FLAT:$SG84958
	DD	FLAT:_P_do
	DD	FLAT:$SG84959
	DD	FLAT:_P_qdo
	DD	FLAT:$SG84960
	DD	FLAT:_P_loop
	DD	FLAT:$SG84961
	DD	FLAT:_P_ploop
	DD	FLAT:$SG84962
	DD	FLAT:_P_xdo
	DD	FLAT:$SG84963
	DD	FLAT:_P_xqdo
	DD	FLAT:$SG84964
	DD	FLAT:_P_xloop
	DD	FLAT:$SG84965
	DD	FLAT:_P_xploop
	DD	FLAT:$SG84966
	DD	FLAT:_P_leave
	DD	FLAT:$SG84967
	DD	FLAT:_P_i
	DD	FLAT:$SG84968
	DD	FLAT:_P_j
	DD	FLAT:$SG84969
	DD	FLAT:_P_quit
	DD	FLAT:$SG84970
	DD	FLAT:_P_abort
	DD	FLAT:$SG84971
	DD	FLAT:_P_abortq
	DD	FLAT:$SG84972
	DD	FLAT:_P_system
	DD	FLAT:$SG84973
	DD	FLAT:_P_trace
	DD	FLAT:$SG84974
	DD	FLAT:_P_walkback
	DD	FLAT:$SG84975
	DD	FLAT:_P_wordsused
	DD	FLAT:$SG84976
	DD	FLAT:_P_wordsunused
	DD	FLAT:$SG84977
	DD	FLAT:_atl_memstat
	DD	FLAT:$SG84978
	DD	FLAT:_P_colon
	DD	FLAT:$SG84979
	DD	FLAT:_P_semicolon
	DD	FLAT:$SG84980
	DD	FLAT:_P_immediate
	DD	FLAT:$SG84981
	DD	FLAT:_P_lbrack
	DD	FLAT:$SG84982
	DD	FLAT:_P_rbrack
	DD	FLAT:$SG84983
	DD	FLAT:_atl__Pcr
	DD	FLAT:$SG84984
	DD	FLAT:_P_forget
	DD	FLAT:$SG84985
	DD	FLAT:_P_does
	DD	FLAT:$SG84986
	DD	FLAT:_P_tick
	DD	FLAT:$SG84987
	DD	FLAT:_P_bracktick
	DD	FLAT:$SG84988
	DD	FLAT:_P_execute
	DD	FLAT:$SG84989
	DD	FLAT:_P_body
	DD	FLAT:$SG84990
	DD	FLAT:_P_state
	DD	FLAT:$SG84991
	DD	FLAT:_P_find
	DD	FLAT:$SG84992
	DD	FLAT:_P_toname
	DD	FLAT:$SG84993
	DD	FLAT:_P_tolink
	DD	FLAT:$SG84994
	DD	FLAT:_P_frombody
	DD	FLAT:$SG84995
	DD	FLAT:_P_fromname
	DD	FLAT:$SG84996
	DD	FLAT:_P_fromlink
	DD	FLAT:$SG84997
	DD	FLAT:_P_nametolink
	DD	FLAT:$SG84998
	DD	FLAT:_P_linktoname
	DD	FLAT:$SG84999
	DD	FLAT:_P_fetchname
	DD	FLAT:$SG85000
	DD	FLAT:_P_storename
	DD	FLAT:$SG85001
	DD	FLAT:_P_brackcompile
	DD	FLAT:$SG85002
	DD	FLAT:_P_literal
	DD	FLAT:$SG85003
	DD	FLAT:_P_compile
	DD	FLAT:$SG85004
	DD	FLAT:_P_backmark
	DD	FLAT:$SG85005
	DD	FLAT:_P_backresolve
	DD	FLAT:$SG85006
	DD	FLAT:_P_fwdmark
	DD	FLAT:$SG85007
	DD	FLAT:_P_fwdresolve
	DD	FLAT:$SG85008
	DD	FLAT:_P_dot
	DD	FLAT:$SG85009
	DD	FLAT:_P_question
	DD	FLAT:$SG85010
	DD	FLAT:_P_cr
	DD	FLAT:$SG85011
	DD	FLAT:_P_dots
	DD	FLAT:$SG85012
	DD	FLAT:_P_dotquote
	DD	FLAT:$SG85013
	DD	FLAT:_P_dotparen
	DD	FLAT:$SG85014
	DD	FLAT:_P_type
	DD	FLAT:$SG85015
	DD	FLAT:_P_words
	DD	FLAT:$SG85016
	DD	FLAT:_P_file
	DD	FLAT:$SG85017
	DD	FLAT:_P_fopen
	DD	FLAT:$SG85018
	DD	FLAT:_P_fclose
	DD	FLAT:$SG85019
	DD	FLAT:_P_fdelete
	DD	FLAT:$SG85020
	DD	FLAT:_P_fgetline
	DD	FLAT:$SG85021
	DD	FLAT:_P_fputline
	DD	FLAT:$SG85022
	DD	FLAT:_P_fread
	DD	FLAT:$SG85023
	DD	FLAT:_P_fwrite
	DD	FLAT:$SG85024
	DD	FLAT:_P_fgetc
	DD	FLAT:$SG85025
	DD	FLAT:_P_fputc
	DD	FLAT:$SG85026
	DD	FLAT:_P_ftell
	DD	FLAT:$SG85027
	DD	FLAT:_P_fseek
	DD	FLAT:$SG85028
	DD	FLAT:_P_fload
	DD	FLAT:$SG85029
	DD	FLAT:_P_evaluate
	DD	00H
	DD	00H
$SG85059 DB	'   %s', 0aH, 00H
	ORG $+1
$SG85065 DB	'   %s', 0aH, 00H
	ORG $+1
$SG85070 DB	0aH, '%s.', 0aH, 00H
	ORG $+2
$SG85075 DB	'Stack overflow', 00H
	ORG $+1
$SG85077 DB	'Stack underflow', 00H
$SG85079 DB	'Return stack overflow', 00H
	ORG $+2
$SG85081 DB	'Return stack underflow', 00H
	ORG $+1
$SG85083 DB	'Heap overflow', 00H
	ORG $+2
$SG85085 DB	'Bad pointer', 00H
$SG85087 DB	'Compiler word outside definition', 00H
	ORG $+3
$SG85089 DB	'Divide by zero', 00H
	ORG $+1
$SG85095 DB	0aH, 'Trace: %s ', 00H
$SG85101 DB	'Break signal', 00H
	ORG $+3
$SG85104 DB	0aH, 'Trace: %s ', 00H
$SG85110 DB	'EXIT', 00H
	ORG $+3
$SG85113 DB	'(LIT)', 00H
	ORG $+2
$SG85116 DB	'(FLIT)', 00H
	ORG $+1
$SG85119 DB	'(STRLIT)', 00H
	ORG $+3
$SG85122 DB	'.(', 00H
	ORG $+1
$SG85125 DB	'?BRANCH', 00H
$SG85128 DB	'BRANCH', 00H
	ORG $+1
$SG85131 DB	'(XDO)', 00H
	ORG $+2
$SG85134 DB	'(X?DO)', 00H
	ORG $+1
$SG85137 DB	'(XLOOP)', 00H
$SG85140 DB	'(+XLOOP)', 00H
	ORG $+3
$SG85143 DB	'ABORT"', 00H
	ORG $+1
$SG85183 DB	'STDIN', 00H
	ORG $+2
$SG85185 DB	'STDOUT', 00H
	ORG $+1
$SG85187 DB	'STDERR', 00H
	ORG $+1
?stdfiles@?8??atl_init@@9@9 DD FLAT:$SG85183		; `atl_init'::`9'::stdfiles
	DD	00H
	DD	FLAT:$SG85185
	DD	00H
	DD	FLAT:$SG85187
	DD	00H
$SG85282 DB	0aH, 'Runaway `('' comment.', 0aH, 00H
	ORG $+1
$SG85292 DB	'STACK ', 00H
	ORG $+1
$SG85293 DB	'RSTACK ', 00H
$SG85294 DB	'HEAP ', 00H
	ORG $+2
$SG85295 DB	'TEMPSTRL ', 00H
	ORG $+2
$SG85296 DB	'TEMPSTRN ', 00H
	ORG $+2
?proname@?1??atl_prologue@@9@9 DD FLAT:$SG85292		; `atl_prologue'::`2'::proname
	DD	FLAT:_atl_stklen
	DD	FLAT:$SG85293
	DD	FLAT:_atl_rstklen
	DD	FLAT:$SG85294
	DD	FLAT:_atl_heaplen
	DD	FLAT:$SG85295
	DD	FLAT:_atl_ltempstr
	DD	FLAT:$SG85296
	DD	FLAT:_atl_ntempstr
$SG85298 DB	'\ *', 00H
$SG85309 DB	'%li', 00H
$SG85336 DB	0aH, 'Forget protected.', 0aH, 00H
$SG85351 DB	' ''%s'' undefined ', 00H
	ORG $+3
$SG85361 DB	' ''%s'' undefined ', 00H
	ORG $+3
$SG85367 DB	0aH, '%s isn''t unique.', 00H
	ORG $+2
$SG85382 DB	' ''%s'' undefined ', 00H
	ORG $+3
$SG85446 DB	'%s', 00H
	ORG $+1
$SG85465 DB	0aH, 'Unknown token type %d', 0aH, 00H
_DATA	ENDS
PUBLIC	_getopt
; Function compile flags: /Odtp
; File c:\a15\facultate\forth\atlast-1.2\getopt.h
_TEXT	SEGMENT
_nargc$ = 8						; size = 4
_nargv$ = 12						; size = 4
_options$ = 16						; size = 4
_getopt	PROC

; 222  : {

  00000	55		 push	 ebp
  00001	8b ec		 mov	 ebp, esp

; 223  : 
; 224  : 	/*
; 225  : 	 * We don't pass FLAG_PERMUTE to getopt_internal() since
; 226  : 	 * the BSD getopt(3) (unlike GNU) has never done this.
; 227  : 	 *
; 228  : 	 * Furthermore, since many privileged programs call getopt()
; 229  : 	 * before dropping privileges it makes sense to keep things
; 230  : 	 * as simple (and bug-free) as possible.
; 231  : 	 */
; 232  : 	return (getopt_internal(nargc, nargv, options, NULL, NULL, 0));

  00003	6a 00		 push	 0
  00005	6a 00		 push	 0
  00007	6a 00		 push	 0
  00009	8b 45 10	 mov	 eax, DWORD PTR _options$[ebp]
  0000c	50		 push	 eax
  0000d	8b 4d 0c	 mov	 ecx, DWORD PTR _nargv$[ebp]
  00010	51		 push	 ecx
  00011	8b 55 08	 mov	 edx, DWORD PTR _nargc$[ebp]
  00014	52		 push	 edx
  00015	e8 00 00 00 00	 call	 _getopt_internal
  0001a	83 c4 18	 add	 esp, 24			; 00000018H

; 233  : }

  0001d	5d		 pop	 ebp
  0001e	c3		 ret	 0
_getopt	ENDP
_TEXT	ENDS
EXTRN	_strchr:PROC
EXTRN	_getenv:PROC
; Function compile flags: /Odtp
_TEXT	SEGMENT
_short_too$ = -12					; size = 4
_oli$ = -8						; size = 4
_optchar$ = -4						; size = 4
_nargc$ = 8						; size = 4
_nargv$ = 12						; size = 4
_options$ = 16						; size = 4
_long_options$ = 20					; size = 4
_idx$ = 24						; size = 4
_flags$ = 28						; size = 4
_getopt_internal PROC

; 420  : {

  00020	55		 push	 ebp
  00021	8b ec		 mov	 ebp, esp
  00023	83 ec 0c	 sub	 esp, 12			; 0000000cH

; 421  : 	char *oli;				/* option letter list index */
; 422  : 	int optchar, short_too;
; 423  : 	static int posixly_correct = -1;
; 424  : 
; 425  : 	if (options == NULL)

  00026	83 7d 10 00	 cmp	 DWORD PTR _options$[ebp], 0
  0002a	75 08		 jne	 SHORT $LN54@getopt_int

; 426  : 		return (-1);

  0002c	83 c8 ff	 or	 eax, -1
  0002f	e9 aa 06 00 00	 jmp	 $LN55@getopt_int
$LN54@getopt_int:

; 427  : 
; 428  : 	/*
; 429  : 	 * XXX Some GNU programs (like cvs) set optind to 0 instead of
; 430  : 	 * XXX using optreset.  Work around this braindamage.
; 431  : 	 */
; 432  : 	if (optind == 0)

  00034	83 3d 00 00 00
	00 00		 cmp	 DWORD PTR _optind, 0
  0003b	75 14		 jne	 SHORT $LN53@getopt_int

; 433  : 		optind = optreset = 1;

  0003d	c7 05 00 00 00
	00 01 00 00 00	 mov	 DWORD PTR ___mingw_optreset, 1
  00047	a1 00 00 00 00	 mov	 eax, DWORD PTR ___mingw_optreset
  0004c	a3 00 00 00 00	 mov	 DWORD PTR _optind, eax
$LN53@getopt_int:

; 434  : 
; 435  : 	/*
; 436  : 	 * Disable GNU extensions if POSIXLY_CORRECT is set or options
; 437  : 	 * string begins with a '+'.
; 438  : 	 *
; 439  : 	 * CV, 2009-12-14: Check POSIXLY_CORRECT anew if optind == 0 or
; 440  : 	 *                 optreset != 0 for GNU compatibility.
; 441  : 	 */
; 442  : 	if (posixly_correct == -1 || optreset != 0)

  00051	83 3d 00 00 00
	00 ff		 cmp	 DWORD PTR ?posixly_correct@?1??getopt_internal@@9@9, -1
  00058	74 09		 je	 SHORT $LN51@getopt_int
  0005a	83 3d 00 00 00
	00 00		 cmp	 DWORD PTR ___mingw_optreset, 0
  00061	74 18		 je	 SHORT $LN52@getopt_int
$LN51@getopt_int:

; 443  : 		posixly_correct = (getenv("POSIXLY_CORRECT") != NULL);

  00063	68 00 00 00 00	 push	 OFFSET $SG82002
  00068	e8 00 00 00 00	 call	 _getenv
  0006d	83 c4 04	 add	 esp, 4
  00070	f7 d8		 neg	 eax
  00072	1b c0		 sbb	 eax, eax
  00074	f7 d8		 neg	 eax
  00076	a3 00 00 00 00	 mov	 DWORD PTR ?posixly_correct@?1??getopt_internal@@9@9, eax
$LN52@getopt_int:

; 444  : 	if (*options == '-')

  0007b	8b 4d 10	 mov	 ecx, DWORD PTR _options$[ebp]
  0007e	0f be 11	 movsx	 edx, BYTE PTR [ecx]
  00081	83 fa 2d	 cmp	 edx, 45			; 0000002dH
  00084	75 0b		 jne	 SHORT $LN50@getopt_int

; 445  : 		flags |= FLAG_ALLARGS;

  00086	8b 45 1c	 mov	 eax, DWORD PTR _flags$[ebp]
  00089	83 c8 02	 or	 eax, 2
  0008c	89 45 1c	 mov	 DWORD PTR _flags$[ebp], eax
  0008f	eb 1d		 jmp	 SHORT $LN49@getopt_int
$LN50@getopt_int:

; 446  : 	else if (posixly_correct || *options == '+')

  00091	83 3d 00 00 00
	00 00		 cmp	 DWORD PTR ?posixly_correct@?1??getopt_internal@@9@9, 0
  00098	75 0b		 jne	 SHORT $LN47@getopt_int
  0009a	8b 4d 10	 mov	 ecx, DWORD PTR _options$[ebp]
  0009d	0f be 11	 movsx	 edx, BYTE PTR [ecx]
  000a0	83 fa 2b	 cmp	 edx, 43			; 0000002bH
  000a3	75 09		 jne	 SHORT $LN49@getopt_int
$LN47@getopt_int:

; 447  : 		flags &= ~FLAG_PERMUTE;

  000a5	8b 45 1c	 mov	 eax, DWORD PTR _flags$[ebp]
  000a8	83 e0 fe	 and	 eax, -2			; fffffffeH
  000ab	89 45 1c	 mov	 DWORD PTR _flags$[ebp], eax
$LN49@getopt_int:

; 448  : 	if (*options == '+' || *options == '-')

  000ae	8b 4d 10	 mov	 ecx, DWORD PTR _options$[ebp]
  000b1	0f be 11	 movsx	 edx, BYTE PTR [ecx]
  000b4	83 fa 2b	 cmp	 edx, 43			; 0000002bH
  000b7	74 0b		 je	 SHORT $LN45@getopt_int
  000b9	8b 45 10	 mov	 eax, DWORD PTR _options$[ebp]
  000bc	0f be 08	 movsx	 ecx, BYTE PTR [eax]
  000bf	83 f9 2d	 cmp	 ecx, 45			; 0000002dH
  000c2	75 09		 jne	 SHORT $LN46@getopt_int
$LN45@getopt_int:

; 449  : 		options++;

  000c4	8b 55 10	 mov	 edx, DWORD PTR _options$[ebp]
  000c7	83 c2 01	 add	 edx, 1
  000ca	89 55 10	 mov	 DWORD PTR _options$[ebp], edx
$LN46@getopt_int:

; 450  : 
; 451  : 	optarg = NULL;

  000cd	c7 05 00 00 00
	00 00 00 00 00	 mov	 DWORD PTR _optarg, 0

; 452  : 	if (optreset)

  000d7	83 3d 00 00 00
	00 00		 cmp	 DWORD PTR ___mingw_optreset, 0
  000de	74 14		 je	 SHORT $start$82011

; 453  : 		nonopt_start = nonopt_end = -1;

  000e0	c7 05 00 00 00
	00 ff ff ff ff	 mov	 DWORD PTR _nonopt_end, -1
  000ea	a1 00 00 00 00	 mov	 eax, DWORD PTR _nonopt_end
  000ef	a3 00 00 00 00	 mov	 DWORD PTR _nonopt_start, eax
$start$82011:

; 454  : start:
; 455  : 	if (optreset || !*place) {		/* update scanning pointer */

  000f4	83 3d 00 00 00
	00 00		 cmp	 DWORD PTR ___mingw_optreset, 0
  000fb	75 11		 jne	 SHORT $LN42@getopt_int
  000fd	8b 0d 00 00 00
	00		 mov	 ecx, DWORD PTR _place
  00103	0f be 11	 movsx	 edx, BYTE PTR [ecx]
  00106	85 d2		 test	 edx, edx
  00108	0f 85 73 02 00
	00		 jne	 $LN43@getopt_int
$LN42@getopt_int:

; 456  : 		optreset = 0;

  0010e	c7 05 00 00 00
	00 00 00 00 00	 mov	 DWORD PTR ___mingw_optreset, 0

; 457  : 		if (optind >= nargc) {          /* end of argument vector */

  00118	a1 00 00 00 00	 mov	 eax, DWORD PTR _optind
  0011d	3b 45 08	 cmp	 eax, DWORD PTR _nargc$[ebp]
  00120	0f 8c 80 00 00
	00		 jl	 $LN41@getopt_int

; 458  : 			place = EMSG;

  00126	c7 05 00 00 00
	00 00 00 00 00	 mov	 DWORD PTR _place, OFFSET $SG82015

; 459  : 			if (nonopt_end != -1) {

  00130	83 3d 00 00 00
	00 ff		 cmp	 DWORD PTR _nonopt_end, -1
  00137	74 3a		 je	 SHORT $LN40@getopt_int

; 460  : 				/* do permutation, if we have to */
; 461  : 				permute_args(nonopt_start, nonopt_end,
; 462  : 				    optind, nargv);

  00139	8b 4d 0c	 mov	 ecx, DWORD PTR _nargv$[ebp]
  0013c	51		 push	 ecx
  0013d	8b 15 00 00 00
	00		 mov	 edx, DWORD PTR _optind
  00143	52		 push	 edx
  00144	a1 00 00 00 00	 mov	 eax, DWORD PTR _nonopt_end
  00149	50		 push	 eax
  0014a	8b 0d 00 00 00
	00		 mov	 ecx, DWORD PTR _nonopt_start
  00150	51		 push	 ecx
  00151	e8 00 00 00 00	 call	 _permute_args
  00156	83 c4 10	 add	 esp, 16			; 00000010H

; 463  : 				optind -= nonopt_end - nonopt_start;

  00159	8b 15 00 00 00
	00		 mov	 edx, DWORD PTR _nonopt_end
  0015f	2b 15 00 00 00
	00		 sub	 edx, DWORD PTR _nonopt_start
  00165	a1 00 00 00 00	 mov	 eax, DWORD PTR _optind
  0016a	2b c2		 sub	 eax, edx
  0016c	a3 00 00 00 00	 mov	 DWORD PTR _optind, eax
  00171	eb 15		 jmp	 SHORT $LN39@getopt_int
$LN40@getopt_int:

; 464  : 			}
; 465  : 			else if (nonopt_start != -1) {

  00173	83 3d 00 00 00
	00 ff		 cmp	 DWORD PTR _nonopt_start, -1
  0017a	74 0c		 je	 SHORT $LN39@getopt_int

; 466  : 				/*
; 467  : 				 * If we skipped non-options, set optind
; 468  : 				 * to the first of them.
; 469  : 				 */
; 470  : 				optind = nonopt_start;

  0017c	8b 0d 00 00 00
	00		 mov	 ecx, DWORD PTR _nonopt_start
  00182	89 0d 00 00 00
	00		 mov	 DWORD PTR _optind, ecx
$LN39@getopt_int:

; 471  : 			}
; 472  : 			nonopt_start = nonopt_end = -1;

  00188	c7 05 00 00 00
	00 ff ff ff ff	 mov	 DWORD PTR _nonopt_end, -1
  00192	8b 15 00 00 00
	00		 mov	 edx, DWORD PTR _nonopt_end
  00198	89 15 00 00 00
	00		 mov	 DWORD PTR _nonopt_start, edx

; 473  : 			return (-1);

  0019e	83 c8 ff	 or	 eax, -1
  001a1	e9 38 05 00 00	 jmp	 $LN55@getopt_int
$LN41@getopt_int:

; 474  : 		}
; 475  : 		if (*(place = nargv[optind]) != '-' ||
; 476  : 		    (place[1] == '\0' && strchr(options, '-') == NULL)) {

  001a6	a1 00 00 00 00	 mov	 eax, DWORD PTR _optind
  001ab	8b 4d 0c	 mov	 ecx, DWORD PTR _nargv$[ebp]
  001ae	8b 14 81	 mov	 edx, DWORD PTR [ecx+eax*4]
  001b1	89 15 00 00 00
	00		 mov	 DWORD PTR _place, edx
  001b7	a1 00 00 00 00	 mov	 eax, DWORD PTR _place
  001bc	0f be 08	 movsx	 ecx, BYTE PTR [eax]
  001bf	83 f9 2d	 cmp	 ecx, 45			; 0000002dH
  001c2	75 28		 jne	 SHORT $LN36@getopt_int
  001c4	8b 15 00 00 00
	00		 mov	 edx, DWORD PTR _place
  001ca	0f be 42 01	 movsx	 eax, BYTE PTR [edx+1]
  001ce	85 c0		 test	 eax, eax
  001d0	0f 85 d6 00 00
	00		 jne	 $LN37@getopt_int
  001d6	6a 2d		 push	 45			; 0000002dH
  001d8	8b 4d 10	 mov	 ecx, DWORD PTR _options$[ebp]
  001db	51		 push	 ecx
  001dc	e8 00 00 00 00	 call	 _strchr
  001e1	83 c4 08	 add	 esp, 8
  001e4	85 c0		 test	 eax, eax
  001e6	0f 85 c0 00 00
	00		 jne	 $LN37@getopt_int
$LN36@getopt_int:

; 477  : 			place = EMSG;		/* found non-option */

  001ec	c7 05 00 00 00
	00 00 00 00 00	 mov	 DWORD PTR _place, OFFSET $SG82022

; 478  : 			if (flags & FLAG_ALLARGS) {

  001f6	8b 55 1c	 mov	 edx, DWORD PTR _flags$[ebp]
  001f9	83 e2 02	 and	 edx, 2
  001fc	74 28		 je	 SHORT $LN35@getopt_int

; 479  : 				/*
; 480  : 				 * GNU extension:
; 481  : 				 * return non-option as argument to option 1
; 482  : 				 */
; 483  : 				optarg = nargv[optind++];

  001fe	a1 00 00 00 00	 mov	 eax, DWORD PTR _optind
  00203	8b 4d 0c	 mov	 ecx, DWORD PTR _nargv$[ebp]
  00206	8b 14 81	 mov	 edx, DWORD PTR [ecx+eax*4]
  00209	89 15 00 00 00
	00		 mov	 DWORD PTR _optarg, edx
  0020f	a1 00 00 00 00	 mov	 eax, DWORD PTR _optind
  00214	83 c0 01	 add	 eax, 1
  00217	a3 00 00 00 00	 mov	 DWORD PTR _optind, eax

; 484  : 				return (INORDER);

  0021c	b8 01 00 00 00	 mov	 eax, 1
  00221	e9 b8 04 00 00	 jmp	 $LN55@getopt_int
$LN35@getopt_int:

; 485  : 			}
; 486  : 			if (!(flags & FLAG_PERMUTE)) {

  00226	8b 4d 1c	 mov	 ecx, DWORD PTR _flags$[ebp]
  00229	83 e1 01	 and	 ecx, 1
  0022c	75 08		 jne	 SHORT $LN34@getopt_int

; 487  : 				/*
; 488  : 				 * If no permutation wanted, stop parsing
; 489  : 				 * at first non-option.
; 490  : 				 */
; 491  : 				return (-1);

  0022e	83 c8 ff	 or	 eax, -1
  00231	e9 a8 04 00 00	 jmp	 $LN55@getopt_int
$LN34@getopt_int:

; 492  : 			}
; 493  : 			/* do permutation */
; 494  : 			if (nonopt_start == -1)

  00236	83 3d 00 00 00
	00 ff		 cmp	 DWORD PTR _nonopt_start, -1
  0023d	75 0e		 jne	 SHORT $LN33@getopt_int

; 495  : 				nonopt_start = optind;

  0023f	8b 15 00 00 00
	00		 mov	 edx, DWORD PTR _optind
  00245	89 15 00 00 00
	00		 mov	 DWORD PTR _nonopt_start, edx
  0024b	eb 4d		 jmp	 SHORT $LN32@getopt_int
$LN33@getopt_int:

; 496  : 			else if (nonopt_end != -1) {

  0024d	83 3d 00 00 00
	00 ff		 cmp	 DWORD PTR _nonopt_end, -1
  00254	74 44		 je	 SHORT $LN32@getopt_int

; 497  : 				permute_args(nonopt_start, nonopt_end,
; 498  : 				    optind, nargv);

  00256	8b 45 0c	 mov	 eax, DWORD PTR _nargv$[ebp]
  00259	50		 push	 eax
  0025a	8b 0d 00 00 00
	00		 mov	 ecx, DWORD PTR _optind
  00260	51		 push	 ecx
  00261	8b 15 00 00 00
	00		 mov	 edx, DWORD PTR _nonopt_end
  00267	52		 push	 edx
  00268	a1 00 00 00 00	 mov	 eax, DWORD PTR _nonopt_start
  0026d	50		 push	 eax
  0026e	e8 00 00 00 00	 call	 _permute_args
  00273	83 c4 10	 add	 esp, 16			; 00000010H

; 499  : 				nonopt_start = optind -
; 500  : 				    (nonopt_end - nonopt_start);

  00276	8b 0d 00 00 00
	00		 mov	 ecx, DWORD PTR _nonopt_end
  0027c	2b 0d 00 00 00
	00		 sub	 ecx, DWORD PTR _nonopt_start
  00282	8b 15 00 00 00
	00		 mov	 edx, DWORD PTR _optind
  00288	2b d1		 sub	 edx, ecx
  0028a	89 15 00 00 00
	00		 mov	 DWORD PTR _nonopt_start, edx

; 501  : 				nonopt_end = -1;

  00290	c7 05 00 00 00
	00 ff ff ff ff	 mov	 DWORD PTR _nonopt_end, -1
$LN32@getopt_int:

; 502  : 			}
; 503  : 			optind++;

  0029a	a1 00 00 00 00	 mov	 eax, DWORD PTR _optind
  0029f	83 c0 01	 add	 eax, 1
  002a2	a3 00 00 00 00	 mov	 DWORD PTR _optind, eax

; 504  : 			/* process next argument */
; 505  : 			goto start;

  002a7	e9 48 fe ff ff	 jmp	 $start$82011
$LN37@getopt_int:

; 506  : 		}
; 507  : 		if (nonopt_start != -1 && nonopt_end == -1)

  002ac	83 3d 00 00 00
	00 ff		 cmp	 DWORD PTR _nonopt_start, -1
  002b3	74 15		 je	 SHORT $LN30@getopt_int
  002b5	83 3d 00 00 00
	00 ff		 cmp	 DWORD PTR _nonopt_end, -1
  002bc	75 0c		 jne	 SHORT $LN30@getopt_int

; 508  : 			nonopt_end = optind;

  002be	8b 0d 00 00 00
	00		 mov	 ecx, DWORD PTR _optind
  002c4	89 0d 00 00 00
	00		 mov	 DWORD PTR _nonopt_end, ecx
$LN30@getopt_int:

; 509  : 
; 510  : 		/*
; 511  : 		 * If we have "-" do nothing, if "--" we are done.
; 512  : 		 */
; 513  : 		if (place[1] != '\0' && *++place == '-' && place[1] == '\0') {

  002ca	8b 15 00 00 00
	00		 mov	 edx, DWORD PTR _place
  002d0	0f be 42 01	 movsx	 eax, BYTE PTR [edx+1]
  002d4	85 c0		 test	 eax, eax
  002d6	0f 84 a5 00 00
	00		 je	 $LN43@getopt_int
  002dc	8b 0d 00 00 00
	00		 mov	 ecx, DWORD PTR _place
  002e2	83 c1 01	 add	 ecx, 1
  002e5	89 0d 00 00 00
	00		 mov	 DWORD PTR _place, ecx
  002eb	8b 15 00 00 00
	00		 mov	 edx, DWORD PTR _place
  002f1	0f be 02	 movsx	 eax, BYTE PTR [edx]
  002f4	83 f8 2d	 cmp	 eax, 45			; 0000002dH
  002f7	0f 85 84 00 00
	00		 jne	 $LN43@getopt_int
  002fd	8b 0d 00 00 00
	00		 mov	 ecx, DWORD PTR _place
  00303	0f be 51 01	 movsx	 edx, BYTE PTR [ecx+1]
  00307	85 d2		 test	 edx, edx
  00309	75 76		 jne	 SHORT $LN43@getopt_int

; 514  : 			optind++;

  0030b	a1 00 00 00 00	 mov	 eax, DWORD PTR _optind
  00310	83 c0 01	 add	 eax, 1
  00313	a3 00 00 00 00	 mov	 DWORD PTR _optind, eax

; 515  : 			place = EMSG;

  00318	c7 05 00 00 00
	00 00 00 00 00	 mov	 DWORD PTR _place, OFFSET $SG82031

; 516  : 			/*
; 517  : 			 * We found an option (--), so if we skipped
; 518  : 			 * non-options, we have to permute.
; 519  : 			 */
; 520  : 			if (nonopt_end != -1) {

  00322	83 3d 00 00 00
	00 ff		 cmp	 DWORD PTR _nonopt_end, -1
  00329	74 38		 je	 SHORT $LN28@getopt_int

; 521  : 				permute_args(nonopt_start, nonopt_end,
; 522  : 				    optind, nargv);

  0032b	8b 4d 0c	 mov	 ecx, DWORD PTR _nargv$[ebp]
  0032e	51		 push	 ecx
  0032f	8b 15 00 00 00
	00		 mov	 edx, DWORD PTR _optind
  00335	52		 push	 edx
  00336	a1 00 00 00 00	 mov	 eax, DWORD PTR _nonopt_end
  0033b	50		 push	 eax
  0033c	8b 0d 00 00 00
	00		 mov	 ecx, DWORD PTR _nonopt_start
  00342	51		 push	 ecx
  00343	e8 00 00 00 00	 call	 _permute_args
  00348	83 c4 10	 add	 esp, 16			; 00000010H

; 523  : 				optind -= nonopt_end - nonopt_start;

  0034b	8b 15 00 00 00
	00		 mov	 edx, DWORD PTR _nonopt_end
  00351	2b 15 00 00 00
	00		 sub	 edx, DWORD PTR _nonopt_start
  00357	a1 00 00 00 00	 mov	 eax, DWORD PTR _optind
  0035c	2b c2		 sub	 eax, edx
  0035e	a3 00 00 00 00	 mov	 DWORD PTR _optind, eax
$LN28@getopt_int:

; 524  : 			}
; 525  : 			nonopt_start = nonopt_end = -1;

  00363	c7 05 00 00 00
	00 ff ff ff ff	 mov	 DWORD PTR _nonopt_end, -1
  0036d	8b 0d 00 00 00
	00		 mov	 ecx, DWORD PTR _nonopt_end
  00373	89 0d 00 00 00
	00		 mov	 DWORD PTR _nonopt_start, ecx

; 526  : 			return (-1);

  00379	83 c8 ff	 or	 eax, -1
  0037c	e9 5d 03 00 00	 jmp	 $LN55@getopt_int
$LN43@getopt_int:

; 527  : 		}
; 528  : 	}
; 529  : 
; 530  : 	/*
; 531  : 	 * Check long options if:
; 532  : 	 *  1) we were passed some
; 533  : 	 *  2) the arg is not just "-"
; 534  : 	 *  3) either the arg starts with -- we are getopt_long_only()
; 535  : 	 */
; 536  : 	if (long_options != NULL && place != nargv[optind] &&
; 537  : 	    (*place == '-' || (flags & FLAG_LONGONLY))) {

  00381	83 7d 14 00	 cmp	 DWORD PTR _long_options$[ebp], 0
  00385	0f 84 be 00 00
	00		 je	 $LN27@getopt_int
  0038b	8b 15 00 00 00
	00		 mov	 edx, DWORD PTR _optind
  00391	8b 45 0c	 mov	 eax, DWORD PTR _nargv$[ebp]
  00394	8b 0d 00 00 00
	00		 mov	 ecx, DWORD PTR _place
  0039a	3b 0c 90	 cmp	 ecx, DWORD PTR [eax+edx*4]
  0039d	0f 84 a6 00 00
	00		 je	 $LN27@getopt_int
  003a3	8b 15 00 00 00
	00		 mov	 edx, DWORD PTR _place
  003a9	0f be 02	 movsx	 eax, BYTE PTR [edx]
  003ac	83 f8 2d	 cmp	 eax, 45			; 0000002dH
  003af	74 0c		 je	 SHORT $LN26@getopt_int
  003b1	8b 4d 1c	 mov	 ecx, DWORD PTR _flags$[ebp]
  003b4	83 e1 04	 and	 ecx, 4
  003b7	0f 84 8c 00 00
	00		 je	 $LN27@getopt_int
$LN26@getopt_int:

; 538  : 		short_too = 0;

  003bd	c7 45 f4 00 00
	00 00		 mov	 DWORD PTR _short_too$[ebp], 0

; 539  : 		if (*place == '-')

  003c4	8b 15 00 00 00
	00		 mov	 edx, DWORD PTR _place
  003ca	0f be 02	 movsx	 eax, BYTE PTR [edx]
  003cd	83 f8 2d	 cmp	 eax, 45			; 0000002dH
  003d0	75 11		 jne	 SHORT $LN25@getopt_int

; 540  : 			place++;		/* --foo long option */

  003d2	8b 0d 00 00 00
	00		 mov	 ecx, DWORD PTR _place
  003d8	83 c1 01	 add	 ecx, 1
  003db	89 0d 00 00 00
	00		 mov	 DWORD PTR _place, ecx
  003e1	eb 2f		 jmp	 SHORT $LN24@getopt_int
$LN25@getopt_int:

; 541  : 		else if (*place != ':' && strchr(options, *place) != NULL)

  003e3	8b 15 00 00 00
	00		 mov	 edx, DWORD PTR _place
  003e9	0f be 02	 movsx	 eax, BYTE PTR [edx]
  003ec	83 f8 3a	 cmp	 eax, 58			; 0000003aH
  003ef	74 21		 je	 SHORT $LN24@getopt_int
  003f1	8b 0d 00 00 00
	00		 mov	 ecx, DWORD PTR _place
  003f7	0f be 11	 movsx	 edx, BYTE PTR [ecx]
  003fa	52		 push	 edx
  003fb	8b 45 10	 mov	 eax, DWORD PTR _options$[ebp]
  003fe	50		 push	 eax
  003ff	e8 00 00 00 00	 call	 _strchr
  00404	83 c4 08	 add	 esp, 8
  00407	85 c0		 test	 eax, eax
  00409	74 07		 je	 SHORT $LN24@getopt_int

; 542  : 			short_too = 1;		/* could be short option too */

  0040b	c7 45 f4 01 00
	00 00		 mov	 DWORD PTR _short_too$[ebp], 1
$LN24@getopt_int:

; 543  : 
; 544  : 		optchar = parse_long_options(nargv, options, long_options,
; 545  : 		    idx, short_too);

  00412	8b 4d f4	 mov	 ecx, DWORD PTR _short_too$[ebp]
  00415	51		 push	 ecx
  00416	8b 55 18	 mov	 edx, DWORD PTR _idx$[ebp]
  00419	52		 push	 edx
  0041a	8b 45 14	 mov	 eax, DWORD PTR _long_options$[ebp]
  0041d	50		 push	 eax
  0041e	8b 4d 10	 mov	 ecx, DWORD PTR _options$[ebp]
  00421	51		 push	 ecx
  00422	8b 55 0c	 mov	 edx, DWORD PTR _nargv$[ebp]
  00425	52		 push	 edx
  00426	e8 00 00 00 00	 call	 _parse_long_options
  0042b	83 c4 14	 add	 esp, 20			; 00000014H
  0042e	89 45 fc	 mov	 DWORD PTR _optchar$[ebp], eax

; 546  : 		if (optchar != -1) {

  00431	83 7d fc ff	 cmp	 DWORD PTR _optchar$[ebp], -1
  00435	74 12		 je	 SHORT $LN27@getopt_int

; 547  : 			place = EMSG;

  00437	c7 05 00 00 00
	00 00 00 00 00	 mov	 DWORD PTR _place, OFFSET $SG82041

; 548  : 			return (optchar);

  00441	8b 45 fc	 mov	 eax, DWORD PTR _optchar$[ebp]
  00444	e9 95 02 00 00	 jmp	 $LN55@getopt_int
$LN27@getopt_int:

; 549  : 		}
; 550  : 	}
; 551  : 
; 552  : 	if ((optchar = (int)*place++) == (int)':' ||
; 553  : 	    (optchar == (int)'-' && *place != '\0') ||
; 554  : 	    (oli = (char*)strchr(options, optchar)) == NULL) {

  00449	a1 00 00 00 00	 mov	 eax, DWORD PTR _place
  0044e	0f be 08	 movsx	 ecx, BYTE PTR [eax]
  00451	89 4d fc	 mov	 DWORD PTR _optchar$[ebp], ecx
  00454	8b 55 fc	 mov	 edx, DWORD PTR _optchar$[ebp]
  00457	a1 00 00 00 00	 mov	 eax, DWORD PTR _place
  0045c	83 c0 01	 add	 eax, 1
  0045f	a3 00 00 00 00	 mov	 DWORD PTR _place, eax
  00464	83 fa 3a	 cmp	 edx, 58			; 0000003aH
  00467	74 2c		 je	 SHORT $LN20@getopt_int
  00469	83 7d fc 2d	 cmp	 DWORD PTR _optchar$[ebp], 45 ; 0000002dH
  0046d	75 0d		 jne	 SHORT $LN19@getopt_int
  0046f	8b 0d 00 00 00
	00		 mov	 ecx, DWORD PTR _place
  00475	0f be 11	 movsx	 edx, BYTE PTR [ecx]
  00478	85 d2		 test	 edx, edx
  0047a	75 19		 jne	 SHORT $LN20@getopt_int
$LN19@getopt_int:
  0047c	8b 45 fc	 mov	 eax, DWORD PTR _optchar$[ebp]
  0047f	50		 push	 eax
  00480	8b 4d 10	 mov	 ecx, DWORD PTR _options$[ebp]
  00483	51		 push	 ecx
  00484	e8 00 00 00 00	 call	 _strchr
  00489	83 c4 08	 add	 esp, 8
  0048c	89 45 f8	 mov	 DWORD PTR _oli$[ebp], eax
  0048f	83 7d f8 00	 cmp	 DWORD PTR _oli$[ebp], 0
  00493	75 6d		 jne	 SHORT $LN21@getopt_int
$LN20@getopt_int:

; 555  : 		/*
; 556  : 		 * If the user specified "-" and  '-' isn't listed in
; 557  : 		 * options, return -1 (non-option) as per POSIX.
; 558  : 		 * Otherwise, it is an unknown option character (or ':').
; 559  : 		 */
; 560  : 		if (optchar == (int)'-' && *place == '\0')

  00495	83 7d fc 2d	 cmp	 DWORD PTR _optchar$[ebp], 45 ; 0000002dH
  00499	75 15		 jne	 SHORT $LN18@getopt_int
  0049b	8b 15 00 00 00
	00		 mov	 edx, DWORD PTR _place
  004a1	0f be 02	 movsx	 eax, BYTE PTR [edx]
  004a4	85 c0		 test	 eax, eax
  004a6	75 08		 jne	 SHORT $LN18@getopt_int

; 561  : 			return (-1);

  004a8	83 c8 ff	 or	 eax, -1
  004ab	e9 2e 02 00 00	 jmp	 $LN55@getopt_int
$LN18@getopt_int:

; 562  : 		if (!*place)

  004b0	8b 0d 00 00 00
	00		 mov	 ecx, DWORD PTR _place
  004b6	0f be 11	 movsx	 edx, BYTE PTR [ecx]
  004b9	85 d2		 test	 edx, edx
  004bb	75 0d		 jne	 SHORT $LN17@getopt_int

; 563  : 			++optind;

  004bd	a1 00 00 00 00	 mov	 eax, DWORD PTR _optind
  004c2	83 c0 01	 add	 eax, 1
  004c5	a3 00 00 00 00	 mov	 DWORD PTR _optind, eax
$LN17@getopt_int:

; 564  : 		if (PRINT_ERROR)

  004ca	83 3d 00 00 00
	00 00		 cmp	 DWORD PTR _opterr, 0
  004d1	74 1c		 je	 SHORT $LN16@getopt_int
  004d3	8b 4d 10	 mov	 ecx, DWORD PTR _options$[ebp]
  004d6	0f be 11	 movsx	 edx, BYTE PTR [ecx]
  004d9	83 fa 3a	 cmp	 edx, 58			; 0000003aH
  004dc	74 11		 je	 SHORT $LN16@getopt_int

; 565  : 			warnx(illoptchar, optchar);

  004de	8b 45 fc	 mov	 eax, DWORD PTR _optchar$[ebp]
  004e1	50		 push	 eax
  004e2	68 00 00 00 00	 push	 OFFSET _illoptchar
  004e7	e8 00 00 00 00	 call	 _warnx
  004ec	83 c4 08	 add	 esp, 8
$LN16@getopt_int:

; 566  : 		optopt = optchar;

  004ef	8b 4d fc	 mov	 ecx, DWORD PTR _optchar$[ebp]
  004f2	89 0d 00 00 00
	00		 mov	 DWORD PTR _optopt, ecx

; 567  : 		return (BADCH);

  004f8	b8 3f 00 00 00	 mov	 eax, 63			; 0000003fH
  004fd	e9 dc 01 00 00	 jmp	 $LN55@getopt_int
$LN21@getopt_int:

; 568  : 	}
; 569  : 	if (long_options != NULL && optchar == 'W' && oli[1] == ';') {

  00502	83 7d 14 00	 cmp	 DWORD PTR _long_options$[ebp], 0
  00506	0f 84 d3 00 00
	00		 je	 $LN15@getopt_int
  0050c	83 7d fc 57	 cmp	 DWORD PTR _optchar$[ebp], 87 ; 00000057H
  00510	0f 85 c9 00 00
	00		 jne	 $LN15@getopt_int
  00516	8b 55 f8	 mov	 edx, DWORD PTR _oli$[ebp]
  00519	0f be 42 01	 movsx	 eax, BYTE PTR [edx+1]
  0051d	83 f8 3b	 cmp	 eax, 59			; 0000003bH
  00520	0f 85 b9 00 00
	00		 jne	 $LN15@getopt_int

; 570  : 		/* -W long-option */
; 571  : 		if (*place)			/* no space */

  00526	8b 0d 00 00 00
	00		 mov	 ecx, DWORD PTR _place
  0052c	0f be 11	 movsx	 edx, BYTE PTR [ecx]
  0052f	85 d2		 test	 edx, edx
  00531	74 02		 je	 SHORT $LN14@getopt_int
  00533	eb 7b		 jmp	 SHORT $LN13@getopt_int
$LN14@getopt_int:

; 572  : 			/* NOTHING */;
; 573  : 		else if (++optind >= nargc) {	/* no arg */

  00535	a1 00 00 00 00	 mov	 eax, DWORD PTR _optind
  0053a	83 c0 01	 add	 eax, 1
  0053d	a3 00 00 00 00	 mov	 DWORD PTR _optind, eax
  00542	8b 0d 00 00 00
	00		 mov	 ecx, DWORD PTR _optind
  00548	3b 4d 08	 cmp	 ecx, DWORD PTR _nargc$[ebp]
  0054b	7c 52		 jl	 SHORT $LN12@getopt_int

; 574  : 			place = EMSG;

  0054d	c7 05 00 00 00
	00 00 00 00 00	 mov	 DWORD PTR _place, OFFSET $SG82060

; 575  : 			if (PRINT_ERROR)

  00557	83 3d 00 00 00
	00 00		 cmp	 DWORD PTR _opterr, 0
  0055e	74 1c		 je	 SHORT $LN11@getopt_int
  00560	8b 55 10	 mov	 edx, DWORD PTR _options$[ebp]
  00563	0f be 02	 movsx	 eax, BYTE PTR [edx]
  00566	83 f8 3a	 cmp	 eax, 58			; 0000003aH
  00569	74 11		 je	 SHORT $LN11@getopt_int

; 576  : 				warnx(recargchar, optchar);

  0056b	8b 4d fc	 mov	 ecx, DWORD PTR _optchar$[ebp]
  0056e	51		 push	 ecx
  0056f	68 00 00 00 00	 push	 OFFSET _recargchar
  00574	e8 00 00 00 00	 call	 _warnx
  00579	83 c4 08	 add	 esp, 8
$LN11@getopt_int:

; 577  : 			optopt = optchar;

  0057c	8b 55 fc	 mov	 edx, DWORD PTR _optchar$[ebp]
  0057f	89 15 00 00 00
	00		 mov	 DWORD PTR _optopt, edx

; 578  : 			return (BADARG);

  00585	8b 45 10	 mov	 eax, DWORD PTR _options$[ebp]
  00588	0f be 00	 movsx	 eax, BYTE PTR [eax]
  0058b	83 e8 3a	 sub	 eax, 58			; 0000003aH
  0058e	f7 d8		 neg	 eax
  00590	1b c0		 sbb	 eax, eax
  00592	83 e0 05	 and	 eax, 5
  00595	83 c0 3a	 add	 eax, 58			; 0000003aH
  00598	e9 41 01 00 00	 jmp	 $LN55@getopt_int

; 579  : 		} else				/* white space */

  0059d	eb 11		 jmp	 SHORT $LN13@getopt_int
$LN12@getopt_int:

; 580  : 			place = nargv[optind];

  0059f	8b 0d 00 00 00
	00		 mov	 ecx, DWORD PTR _optind
  005a5	8b 55 0c	 mov	 edx, DWORD PTR _nargv$[ebp]
  005a8	8b 04 8a	 mov	 eax, DWORD PTR [edx+ecx*4]
  005ab	a3 00 00 00 00	 mov	 DWORD PTR _place, eax
$LN13@getopt_int:

; 581  : 		optchar = parse_long_options(nargv, options, long_options,
; 582  : 		    idx, 0);

  005b0	6a 00		 push	 0
  005b2	8b 4d 18	 mov	 ecx, DWORD PTR _idx$[ebp]
  005b5	51		 push	 ecx
  005b6	8b 55 14	 mov	 edx, DWORD PTR _long_options$[ebp]
  005b9	52		 push	 edx
  005ba	8b 45 10	 mov	 eax, DWORD PTR _options$[ebp]
  005bd	50		 push	 eax
  005be	8b 4d 0c	 mov	 ecx, DWORD PTR _nargv$[ebp]
  005c1	51		 push	 ecx
  005c2	e8 00 00 00 00	 call	 _parse_long_options
  005c7	83 c4 14	 add	 esp, 20			; 00000014H
  005ca	89 45 fc	 mov	 DWORD PTR _optchar$[ebp], eax

; 583  : 		place = EMSG;

  005cd	c7 05 00 00 00
	00 00 00 00 00	 mov	 DWORD PTR _place, OFFSET $SG82065

; 584  : 		return (optchar);

  005d7	8b 45 fc	 mov	 eax, DWORD PTR _optchar$[ebp]
  005da	e9 ff 00 00 00	 jmp	 $LN55@getopt_int
$LN15@getopt_int:

; 585  : 	}
; 586  : 	if (*++oli != ':') {			/* doesn't take argument */

  005df	8b 55 f8	 mov	 edx, DWORD PTR _oli$[ebp]
  005e2	83 c2 01	 add	 edx, 1
  005e5	89 55 f8	 mov	 DWORD PTR _oli$[ebp], edx
  005e8	8b 45 f8	 mov	 eax, DWORD PTR _oli$[ebp]
  005eb	0f be 08	 movsx	 ecx, BYTE PTR [eax]
  005ee	83 f9 3a	 cmp	 ecx, 58			; 0000003aH
  005f1	74 21		 je	 SHORT $LN9@getopt_int

; 587  : 		if (!*place)

  005f3	8b 15 00 00 00
	00		 mov	 edx, DWORD PTR _place
  005f9	0f be 02	 movsx	 eax, BYTE PTR [edx]
  005fc	85 c0		 test	 eax, eax
  005fe	75 0f		 jne	 SHORT $LN8@getopt_int

; 588  : 			++optind;

  00600	8b 0d 00 00 00
	00		 mov	 ecx, DWORD PTR _optind
  00606	83 c1 01	 add	 ecx, 1
  00609	89 0d 00 00 00
	00		 mov	 DWORD PTR _optind, ecx
$LN8@getopt_int:

; 589  : 	} else {				/* takes (optional) argument */

  0060f	e9 c7 00 00 00	 jmp	 $LN7@getopt_int
$LN9@getopt_int:

; 590  : 		optarg = NULL;

  00614	c7 05 00 00 00
	00 00 00 00 00	 mov	 DWORD PTR _optarg, 0

; 591  : 		if (*place)			/* no white space */

  0061e	8b 15 00 00 00
	00		 mov	 edx, DWORD PTR _place
  00624	0f be 02	 movsx	 eax, BYTE PTR [edx]
  00627	85 c0		 test	 eax, eax
  00629	74 11		 je	 SHORT $LN6@getopt_int

; 592  : 			optarg = place;

  0062b	8b 0d 00 00 00
	00		 mov	 ecx, DWORD PTR _place
  00631	89 0d 00 00 00
	00		 mov	 DWORD PTR _optarg, ecx
  00637	e9 86 00 00 00	 jmp	 $LN5@getopt_int
$LN6@getopt_int:

; 593  : 		else if (oli[1] != ':') {	/* arg not optional */

  0063c	8b 55 f8	 mov	 edx, DWORD PTR _oli$[ebp]
  0063f	0f be 42 01	 movsx	 eax, BYTE PTR [edx+1]
  00643	83 f8 3a	 cmp	 eax, 58			; 0000003aH
  00646	74 7a		 je	 SHORT $LN5@getopt_int

; 594  : 			if (++optind >= nargc) {	/* no arg */

  00648	8b 0d 00 00 00
	00		 mov	 ecx, DWORD PTR _optind
  0064e	83 c1 01	 add	 ecx, 1
  00651	89 0d 00 00 00
	00		 mov	 DWORD PTR _optind, ecx
  00657	8b 15 00 00 00
	00		 mov	 edx, DWORD PTR _optind
  0065d	3b 55 08	 cmp	 edx, DWORD PTR _nargc$[ebp]
  00660	7c 4e		 jl	 SHORT $LN3@getopt_int

; 595  : 				place = EMSG;

  00662	c7 05 00 00 00
	00 00 00 00 00	 mov	 DWORD PTR _place, OFFSET $SG82074

; 596  : 				if (PRINT_ERROR)

  0066c	83 3d 00 00 00
	00 00		 cmp	 DWORD PTR _opterr, 0
  00673	74 1c		 je	 SHORT $LN2@getopt_int
  00675	8b 45 10	 mov	 eax, DWORD PTR _options$[ebp]
  00678	0f be 08	 movsx	 ecx, BYTE PTR [eax]
  0067b	83 f9 3a	 cmp	 ecx, 58			; 0000003aH
  0067e	74 11		 je	 SHORT $LN2@getopt_int

; 597  : 					warnx(recargchar, optchar);

  00680	8b 55 fc	 mov	 edx, DWORD PTR _optchar$[ebp]
  00683	52		 push	 edx
  00684	68 00 00 00 00	 push	 OFFSET _recargchar
  00689	e8 00 00 00 00	 call	 _warnx
  0068e	83 c4 08	 add	 esp, 8
$LN2@getopt_int:

; 598  : 				optopt = optchar;

  00691	8b 45 fc	 mov	 eax, DWORD PTR _optchar$[ebp]
  00694	a3 00 00 00 00	 mov	 DWORD PTR _optopt, eax

; 599  : 				return (BADARG);

  00699	8b 4d 10	 mov	 ecx, DWORD PTR _options$[ebp]
  0069c	0f be 01	 movsx	 eax, BYTE PTR [ecx]
  0069f	83 e8 3a	 sub	 eax, 58			; 0000003aH
  006a2	f7 d8		 neg	 eax
  006a4	1b c0		 sbb	 eax, eax
  006a6	83 e0 05	 and	 eax, 5
  006a9	83 c0 3a	 add	 eax, 58			; 0000003aH
  006ac	eb 30		 jmp	 SHORT $LN55@getopt_int

; 600  : 			} else

  006ae	eb 12		 jmp	 SHORT $LN5@getopt_int
$LN3@getopt_int:

; 601  : 				optarg = nargv[optind];

  006b0	8b 15 00 00 00
	00		 mov	 edx, DWORD PTR _optind
  006b6	8b 45 0c	 mov	 eax, DWORD PTR _nargv$[ebp]
  006b9	8b 0c 90	 mov	 ecx, DWORD PTR [eax+edx*4]
  006bc	89 0d 00 00 00
	00		 mov	 DWORD PTR _optarg, ecx
$LN5@getopt_int:

; 602  : 		}
; 603  : 		place = EMSG;

  006c2	c7 05 00 00 00
	00 00 00 00 00	 mov	 DWORD PTR _place, OFFSET $SG82079

; 604  : 		++optind;

  006cc	8b 15 00 00 00
	00		 mov	 edx, DWORD PTR _optind
  006d2	83 c2 01	 add	 edx, 1
  006d5	89 15 00 00 00
	00		 mov	 DWORD PTR _optind, edx
$LN7@getopt_int:

; 605  : 	}
; 606  : 	/* dump back option letter */
; 607  : 	return (optchar);

  006db	8b 45 fc	 mov	 eax, DWORD PTR _optchar$[ebp]
$LN55@getopt_int:

; 608  : }

  006de	8b e5		 mov	 esp, ebp
  006e0	5d		 pop	 ebp
  006e1	c3		 ret	 0
_getopt_internal ENDP
; Function compile flags: /Odtp
_ap$ = -4						; size = 4
_fmt$ = 8						; size = 4
_warnx	PROC

; 151  : {

  006f0	55		 push	 ebp
  006f1	8b ec		 mov	 ebp, esp
  006f3	51		 push	 ecx

; 152  :   va_list ap;
; 153  :   va_start(ap,fmt);

  006f4	8d 45 0c	 lea	 eax, DWORD PTR _fmt$[ebp+4]
  006f7	89 45 fc	 mov	 DWORD PTR _ap$[ebp], eax

; 154  :   _vwarnx(fmt,ap);

  006fa	8b 4d fc	 mov	 ecx, DWORD PTR _ap$[ebp]
  006fd	51		 push	 ecx
  006fe	8b 55 08	 mov	 edx, DWORD PTR _fmt$[ebp]
  00701	52		 push	 edx
  00702	e8 00 00 00 00	 call	 __vwarnx
  00707	83 c4 08	 add	 esp, 8

; 155  :   va_end(ap);

  0070a	c7 45 fc 00 00
	00 00		 mov	 DWORD PTR _ap$[ebp], 0

; 156  : }

  00711	8b e5		 mov	 esp, ebp
  00713	5d		 pop	 ebp
  00714	c3		 ret	 0
_warnx	ENDP
_TEXT	ENDS
EXTRN	_vfprintf:PROC
EXTRN	_fprintf:PROC
EXTRN	___iob_func:PROC
EXTRN	___argv:DWORD
; Function compile flags: /Odtp
_TEXT	SEGMENT
_fmt$ = 8						; size = 4
_ap$ = 12						; size = 4
__vwarnx PROC

; 142  : {

  00720	55		 push	 ebp
  00721	8b ec		 mov	 ebp, esp

; 143  :   (void)fprintf(stderr,"%s: ",__progname);

  00723	a1 00 00 00 00	 mov	 eax, DWORD PTR ___argv
  00728	8b 08		 mov	 ecx, DWORD PTR [eax]
  0072a	51		 push	 ecx
  0072b	68 00 00 00 00	 push	 OFFSET $SG81845
  00730	e8 00 00 00 00	 call	 ___iob_func
  00735	83 c0 40	 add	 eax, 64			; 00000040H
  00738	50		 push	 eax
  00739	e8 00 00 00 00	 call	 _fprintf
  0073e	83 c4 0c	 add	 esp, 12			; 0000000cH

; 144  :   if (fmt != NULL)

  00741	83 7d 08 00	 cmp	 DWORD PTR _fmt$[ebp], 0
  00745	74 19		 je	 SHORT $LN1@vwarnx

; 145  :     (void)vfprintf(stderr,fmt,ap);

  00747	8b 55 0c	 mov	 edx, DWORD PTR _ap$[ebp]
  0074a	52		 push	 edx
  0074b	8b 45 08	 mov	 eax, DWORD PTR _fmt$[ebp]
  0074e	50		 push	 eax
  0074f	e8 00 00 00 00	 call	 ___iob_func
  00754	83 c0 40	 add	 eax, 64			; 00000040H
  00757	50		 push	 eax
  00758	e8 00 00 00 00	 call	 _vfprintf
  0075d	83 c4 0c	 add	 esp, 12			; 0000000cH
$LN1@vwarnx:

; 146  :   (void)fprintf(stderr,"\n");

  00760	68 00 00 00 00	 push	 OFFSET $SG81850
  00765	e8 00 00 00 00	 call	 ___iob_func
  0076a	83 c0 40	 add	 eax, 64			; 00000040H
  0076d	50		 push	 eax
  0076e	e8 00 00 00 00	 call	 _fprintf
  00773	83 c4 08	 add	 esp, 8

; 147  : }

  00776	5d		 pop	 ebp
  00777	c3		 ret	 0
__vwarnx ENDP
; Function compile flags: /Odtp
_j$ = -36						; size = 4
_pos$ = -32						; size = 4
_swap$ = -28						; size = 4
_cyclelen$ = -24					; size = 4
_ncycle$ = -20						; size = 4
_nopts$ = -16						; size = 4
_cstart$ = -12						; size = 4
_i$ = -8						; size = 4
_nnonopts$ = -4						; size = 4
_panonopt_start$ = 8					; size = 4
_panonopt_end$ = 12					; size = 4
_opt_end$ = 16						; size = 4
_nargv$ = 20						; size = 4
_permute_args PROC

; 184  : {

  00780	55		 push	 ebp
  00781	8b ec		 mov	 ebp, esp
  00783	83 ec 24	 sub	 esp, 36			; 00000024H
  00786	56		 push	 esi

; 185  : 	int cstart, cyclelen, i, j, ncycle, nnonopts, nopts, pos;
; 186  : 	char *swap;
; 187  : 
; 188  : 	/*
; 189  : 	 * compute lengths of blocks and number and size of cycles
; 190  : 	 */
; 191  : 	nnonopts = panonopt_end - panonopt_start;

  00787	8b 45 0c	 mov	 eax, DWORD PTR _panonopt_end$[ebp]
  0078a	2b 45 08	 sub	 eax, DWORD PTR _panonopt_start$[ebp]
  0078d	89 45 fc	 mov	 DWORD PTR _nnonopts$[ebp], eax

; 192  : 	nopts = opt_end - panonopt_end;

  00790	8b 4d 10	 mov	 ecx, DWORD PTR _opt_end$[ebp]
  00793	2b 4d 0c	 sub	 ecx, DWORD PTR _panonopt_end$[ebp]
  00796	89 4d f0	 mov	 DWORD PTR _nopts$[ebp], ecx

; 193  : 	ncycle = gcd(nnonopts, nopts);

  00799	8b 55 f0	 mov	 edx, DWORD PTR _nopts$[ebp]
  0079c	52		 push	 edx
  0079d	8b 45 fc	 mov	 eax, DWORD PTR _nnonopts$[ebp]
  007a0	50		 push	 eax
  007a1	e8 00 00 00 00	 call	 _gcd
  007a6	83 c4 08	 add	 esp, 8
  007a9	89 45 ec	 mov	 DWORD PTR _ncycle$[ebp], eax

; 194  : 	cyclelen = (opt_end - panonopt_start) / ncycle;

  007ac	8b 45 10	 mov	 eax, DWORD PTR _opt_end$[ebp]
  007af	2b 45 08	 sub	 eax, DWORD PTR _panonopt_start$[ebp]
  007b2	99		 cdq
  007b3	f7 7d ec	 idiv	 DWORD PTR _ncycle$[ebp]
  007b6	89 45 e8	 mov	 DWORD PTR _cyclelen$[ebp], eax

; 195  : 
; 196  : 	for (i = 0; i < ncycle; i++) {

  007b9	c7 45 f8 00 00
	00 00		 mov	 DWORD PTR _i$[ebp], 0
  007c0	eb 09		 jmp	 SHORT $LN8@permute_ar
$LN7@permute_ar:
  007c2	8b 4d f8	 mov	 ecx, DWORD PTR _i$[ebp]
  007c5	83 c1 01	 add	 ecx, 1
  007c8	89 4d f8	 mov	 DWORD PTR _i$[ebp], ecx
$LN8@permute_ar:
  007cb	8b 55 f8	 mov	 edx, DWORD PTR _i$[ebp]
  007ce	3b 55 ec	 cmp	 edx, DWORD PTR _ncycle$[ebp]
  007d1	7d 76		 jge	 SHORT $LN9@permute_ar

; 197  : 		cstart = panonopt_end+i;

  007d3	8b 45 0c	 mov	 eax, DWORD PTR _panonopt_end$[ebp]
  007d6	03 45 f8	 add	 eax, DWORD PTR _i$[ebp]
  007d9	89 45 f4	 mov	 DWORD PTR _cstart$[ebp], eax

; 198  : 		pos = cstart;

  007dc	8b 4d f4	 mov	 ecx, DWORD PTR _cstart$[ebp]
  007df	89 4d e0	 mov	 DWORD PTR _pos$[ebp], ecx

; 199  : 		for (j = 0; j < cyclelen; j++) {

  007e2	c7 45 dc 00 00
	00 00		 mov	 DWORD PTR _j$[ebp], 0
  007e9	eb 09		 jmp	 SHORT $LN5@permute_ar
$LN4@permute_ar:
  007eb	8b 55 dc	 mov	 edx, DWORD PTR _j$[ebp]
  007ee	83 c2 01	 add	 edx, 1
  007f1	89 55 dc	 mov	 DWORD PTR _j$[ebp], edx
$LN5@permute_ar:
  007f4	8b 45 dc	 mov	 eax, DWORD PTR _j$[ebp]
  007f7	3b 45 e8	 cmp	 eax, DWORD PTR _cyclelen$[ebp]
  007fa	7d 48		 jge	 SHORT $LN3@permute_ar

; 200  : 			if (pos >= panonopt_end)

  007fc	8b 4d e0	 mov	 ecx, DWORD PTR _pos$[ebp]
  007ff	3b 4d 0c	 cmp	 ecx, DWORD PTR _panonopt_end$[ebp]
  00802	7c 0b		 jl	 SHORT $LN2@permute_ar

; 201  : 				pos -= nnonopts;

  00804	8b 55 e0	 mov	 edx, DWORD PTR _pos$[ebp]
  00807	2b 55 fc	 sub	 edx, DWORD PTR _nnonopts$[ebp]
  0080a	89 55 e0	 mov	 DWORD PTR _pos$[ebp], edx

; 202  : 			else

  0080d	eb 09		 jmp	 SHORT $LN1@permute_ar
$LN2@permute_ar:

; 203  : 				pos += nopts;

  0080f	8b 45 e0	 mov	 eax, DWORD PTR _pos$[ebp]
  00812	03 45 f0	 add	 eax, DWORD PTR _nopts$[ebp]
  00815	89 45 e0	 mov	 DWORD PTR _pos$[ebp], eax
$LN1@permute_ar:

; 204  : 			swap = nargv[pos];

  00818	8b 4d e0	 mov	 ecx, DWORD PTR _pos$[ebp]
  0081b	8b 55 14	 mov	 edx, DWORD PTR _nargv$[ebp]
  0081e	8b 04 8a	 mov	 eax, DWORD PTR [edx+ecx*4]
  00821	89 45 e4	 mov	 DWORD PTR _swap$[ebp], eax

; 205  : 			/* LINTED const cast */
; 206  : 			((char **) nargv)[pos] = nargv[cstart];

  00824	8b 4d e0	 mov	 ecx, DWORD PTR _pos$[ebp]
  00827	8b 55 14	 mov	 edx, DWORD PTR _nargv$[ebp]
  0082a	8b 45 f4	 mov	 eax, DWORD PTR _cstart$[ebp]
  0082d	8b 75 14	 mov	 esi, DWORD PTR _nargv$[ebp]
  00830	8b 04 86	 mov	 eax, DWORD PTR [esi+eax*4]
  00833	89 04 8a	 mov	 DWORD PTR [edx+ecx*4], eax

; 207  : 			/* LINTED const cast */
; 208  : 			((char **)nargv)[cstart] = swap;

  00836	8b 4d f4	 mov	 ecx, DWORD PTR _cstart$[ebp]
  00839	8b 55 14	 mov	 edx, DWORD PTR _nargv$[ebp]
  0083c	8b 45 e4	 mov	 eax, DWORD PTR _swap$[ebp]
  0083f	89 04 8a	 mov	 DWORD PTR [edx+ecx*4], eax

; 209  : 		}

  00842	eb a7		 jmp	 SHORT $LN4@permute_ar
$LN3@permute_ar:

; 210  : 	}

  00844	e9 79 ff ff ff	 jmp	 $LN7@permute_ar
$LN9@permute_ar:

; 211  : }

  00849	5e		 pop	 esi
  0084a	8b e5		 mov	 esp, ebp
  0084c	5d		 pop	 ebp
  0084d	c3		 ret	 0
_permute_args ENDP
; Function compile flags: /Odtp
_c$ = -4						; size = 4
_a$ = 8							; size = 4
_b$ = 12						; size = 4
_gcd	PROC

; 163  : {

  00850	55		 push	 ebp
  00851	8b ec		 mov	 ebp, esp
  00853	51		 push	 ecx

; 164  : 	int c;
; 165  : 
; 166  : 	c = a % b;

  00854	8b 45 08	 mov	 eax, DWORD PTR _a$[ebp]
  00857	99		 cdq
  00858	f7 7d 0c	 idiv	 DWORD PTR _b$[ebp]
  0085b	89 55 fc	 mov	 DWORD PTR _c$[ebp], edx
$LN2@gcd:

; 167  : 	while (c != 0) {

  0085e	83 7d fc 00	 cmp	 DWORD PTR _c$[ebp], 0
  00862	74 18		 je	 SHORT $LN1@gcd

; 168  : 		a = b;

  00864	8b 45 0c	 mov	 eax, DWORD PTR _b$[ebp]
  00867	89 45 08	 mov	 DWORD PTR _a$[ebp], eax

; 169  : 		b = c;

  0086a	8b 4d fc	 mov	 ecx, DWORD PTR _c$[ebp]
  0086d	89 4d 0c	 mov	 DWORD PTR _b$[ebp], ecx

; 170  : 		c = a % b;

  00870	8b 45 08	 mov	 eax, DWORD PTR _a$[ebp]
  00873	99		 cdq
  00874	f7 7d 0c	 idiv	 DWORD PTR _b$[ebp]
  00877	89 55 fc	 mov	 DWORD PTR _c$[ebp], edx

; 171  : 	}

  0087a	eb e2		 jmp	 SHORT $LN2@gcd
$LN1@gcd:

; 172  : 
; 173  : 	return (b);

  0087c	8b 45 0c	 mov	 eax, DWORD PTR _b$[ebp]

; 174  : }

  0087f	8b e5		 mov	 esp, ebp
  00881	5d		 pop	 ebp
  00882	c3		 ret	 0
_gcd	ENDP
_TEXT	ENDS
EXTRN	_strncmp:PROC
EXTRN	_strlen:PROC
; Function compile flags: /Odtp
_TEXT	SEGMENT
_has_equal$ = -24					; size = 4
_match$ = -20						; size = 4
_ambiguous$ = -16					; size = 4
_i$ = -12						; size = 4
_current_argv_len$ = -8					; size = 4
_current_argv$ = -4					; size = 4
_nargv$ = 8						; size = 4
_options$ = 12						; size = 4
_long_options$ = 16					; size = 4
_idx$ = 20						; size = 4
_short_too$ = 24					; size = 4
_parse_long_options PROC

; 292  : {

  00890	55		 push	 ebp
  00891	8b ec		 mov	 ebp, esp
  00893	83 ec 18	 sub	 esp, 24			; 00000018H
  00896	56		 push	 esi

; 293  : 	char *current_argv, *has_equal;
; 294  : 	size_t current_argv_len;
; 295  : 	int i, ambiguous, match;
; 296  : 
; 297  : #define IDENTICAL_INTERPRETATION(_x, _y)                                \
; 298  : 	(long_options[(_x)].has_arg == long_options[(_y)].has_arg &&    \
; 299  : 	 long_options[(_x)].flag == long_options[(_y)].flag &&          \
; 300  : 	 long_options[(_x)].val == long_options[(_y)].val)
; 301  : 
; 302  : 	current_argv = place;

  00897	a1 00 00 00 00	 mov	 eax, DWORD PTR _place
  0089c	89 45 fc	 mov	 DWORD PTR _current_argv$[ebp], eax

; 303  : 	match = -1;

  0089f	c7 45 ec ff ff
	ff ff		 mov	 DWORD PTR _match$[ebp], -1

; 304  : 	ambiguous = 0;

  008a6	c7 45 f0 00 00
	00 00		 mov	 DWORD PTR _ambiguous$[ebp], 0

; 305  : 
; 306  : 	optind++;

  008ad	8b 0d 00 00 00
	00		 mov	 ecx, DWORD PTR _optind
  008b3	83 c1 01	 add	 ecx, 1
  008b6	89 0d 00 00 00
	00		 mov	 DWORD PTR _optind, ecx

; 307  : 
; 308  : 	if ((has_equal = strchr(current_argv, '=')) != NULL) {

  008bc	6a 3d		 push	 61			; 0000003dH
  008be	8b 55 fc	 mov	 edx, DWORD PTR _current_argv$[ebp]
  008c1	52		 push	 edx
  008c2	e8 00 00 00 00	 call	 _strchr
  008c7	83 c4 08	 add	 esp, 8
  008ca	89 45 e8	 mov	 DWORD PTR _has_equal$[ebp], eax
  008cd	83 7d e8 00	 cmp	 DWORD PTR _has_equal$[ebp], 0
  008d1	74 14		 je	 SHORT $LN34@parse_long

; 309  : 		/* argument found (--option=arg) */
; 310  : 		current_argv_len = has_equal - current_argv;

  008d3	8b 45 e8	 mov	 eax, DWORD PTR _has_equal$[ebp]
  008d6	2b 45 fc	 sub	 eax, DWORD PTR _current_argv$[ebp]
  008d9	89 45 f8	 mov	 DWORD PTR _current_argv_len$[ebp], eax

; 311  : 		has_equal++;

  008dc	8b 4d e8	 mov	 ecx, DWORD PTR _has_equal$[ebp]
  008df	83 c1 01	 add	 ecx, 1
  008e2	89 4d e8	 mov	 DWORD PTR _has_equal$[ebp], ecx

; 312  : 	} else

  008e5	eb 0f		 jmp	 SHORT $LN33@parse_long
$LN34@parse_long:

; 313  : 		current_argv_len = strlen(current_argv);

  008e7	8b 55 fc	 mov	 edx, DWORD PTR _current_argv$[ebp]
  008ea	52		 push	 edx
  008eb	e8 00 00 00 00	 call	 _strlen
  008f0	83 c4 04	 add	 esp, 4
  008f3	89 45 f8	 mov	 DWORD PTR _current_argv_len$[ebp], eax
$LN33@parse_long:

; 314  : 
; 315  : 	for (i = 0; long_options[i].name; i++) {

  008f6	c7 45 f4 00 00
	00 00		 mov	 DWORD PTR _i$[ebp], 0
  008fd	eb 09		 jmp	 SHORT $LN32@parse_long
$LN31@parse_long:
  008ff	8b 45 f4	 mov	 eax, DWORD PTR _i$[ebp]
  00902	83 c0 01	 add	 eax, 1
  00905	89 45 f4	 mov	 DWORD PTR _i$[ebp], eax
$LN32@parse_long:
  00908	8b 4d f4	 mov	 ecx, DWORD PTR _i$[ebp]
  0090b	c1 e1 04	 shl	 ecx, 4
  0090e	8b 55 10	 mov	 edx, DWORD PTR _long_options$[ebp]
  00911	83 3c 0a 00	 cmp	 DWORD PTR [edx+ecx], 0
  00915	0f 84 c8 00 00
	00		 je	 $LN30@parse_long

; 316  : 		/* find matching long option */
; 317  : 		if (strncmp(current_argv, long_options[i].name,
; 318  : 		    current_argv_len))

  0091b	8b 45 f8	 mov	 eax, DWORD PTR _current_argv_len$[ebp]
  0091e	50		 push	 eax
  0091f	8b 4d f4	 mov	 ecx, DWORD PTR _i$[ebp]
  00922	c1 e1 04	 shl	 ecx, 4
  00925	8b 55 10	 mov	 edx, DWORD PTR _long_options$[ebp]
  00928	8b 04 0a	 mov	 eax, DWORD PTR [edx+ecx]
  0092b	50		 push	 eax
  0092c	8b 4d fc	 mov	 ecx, DWORD PTR _current_argv$[ebp]
  0092f	51		 push	 ecx
  00930	e8 00 00 00 00	 call	 _strncmp
  00935	83 c4 0c	 add	 esp, 12			; 0000000cH
  00938	85 c0		 test	 eax, eax
  0093a	74 02		 je	 SHORT $LN29@parse_long

; 319  : 			continue;

  0093c	eb c1		 jmp	 SHORT $LN31@parse_long
$LN29@parse_long:

; 320  : 
; 321  : 		if (strlen(long_options[i].name) == current_argv_len) {

  0093e	8b 55 f4	 mov	 edx, DWORD PTR _i$[ebp]
  00941	c1 e2 04	 shl	 edx, 4
  00944	8b 45 10	 mov	 eax, DWORD PTR _long_options$[ebp]
  00947	8b 0c 10	 mov	 ecx, DWORD PTR [eax+edx]
  0094a	51		 push	 ecx
  0094b	e8 00 00 00 00	 call	 _strlen
  00950	83 c4 04	 add	 esp, 4
  00953	3b 45 f8	 cmp	 eax, DWORD PTR _current_argv_len$[ebp]
  00956	75 0f		 jne	 SHORT $LN28@parse_long

; 322  : 			/* exact match */
; 323  : 			match = i;

  00958	8b 55 f4	 mov	 edx, DWORD PTR _i$[ebp]
  0095b	89 55 ec	 mov	 DWORD PTR _match$[ebp], edx

; 324  : 			ambiguous = 0;

  0095e	c7 45 f0 00 00
	00 00		 mov	 DWORD PTR _ambiguous$[ebp], 0

; 325  : 			break;

  00965	eb 7c		 jmp	 SHORT $LN30@parse_long
$LN28@parse_long:

; 326  : 		}
; 327  : 		/*
; 328  : 		 * If this is a known short option, don't allow
; 329  : 		 * a partial match of a single character.
; 330  : 		 */
; 331  : 		if (short_too && current_argv_len == 1)

  00967	83 7d 18 00	 cmp	 DWORD PTR _short_too$[ebp], 0
  0096b	74 08		 je	 SHORT $LN27@parse_long
  0096d	83 7d f8 01	 cmp	 DWORD PTR _current_argv_len$[ebp], 1
  00971	75 02		 jne	 SHORT $LN27@parse_long

; 332  : 			continue;

  00973	eb 8a		 jmp	 SHORT $LN31@parse_long
$LN27@parse_long:

; 333  : 
; 334  : 		if (match == -1)	/* partial match */

  00975	83 7d ec ff	 cmp	 DWORD PTR _match$[ebp], -1
  00979	75 08		 jne	 SHORT $LN26@parse_long

; 335  : 			match = i;

  0097b	8b 45 f4	 mov	 eax, DWORD PTR _i$[ebp]
  0097e	89 45 ec	 mov	 DWORD PTR _match$[ebp], eax
  00981	eb 5b		 jmp	 SHORT $LN25@parse_long
$LN26@parse_long:

; 336  : 		else if (!IDENTICAL_INTERPRETATION(i, match))

  00983	8b 4d f4	 mov	 ecx, DWORD PTR _i$[ebp]
  00986	c1 e1 04	 shl	 ecx, 4
  00989	8b 55 ec	 mov	 edx, DWORD PTR _match$[ebp]
  0098c	c1 e2 04	 shl	 edx, 4
  0098f	8b 45 10	 mov	 eax, DWORD PTR _long_options$[ebp]
  00992	8b 75 10	 mov	 esi, DWORD PTR _long_options$[ebp]
  00995	8b 4c 08 04	 mov	 ecx, DWORD PTR [eax+ecx+4]
  00999	3b 4c 16 04	 cmp	 ecx, DWORD PTR [esi+edx+4]
  0099d	75 38		 jne	 SHORT $LN23@parse_long
  0099f	8b 55 f4	 mov	 edx, DWORD PTR _i$[ebp]
  009a2	c1 e2 04	 shl	 edx, 4
  009a5	8b 45 ec	 mov	 eax, DWORD PTR _match$[ebp]
  009a8	c1 e0 04	 shl	 eax, 4
  009ab	8b 4d 10	 mov	 ecx, DWORD PTR _long_options$[ebp]
  009ae	8b 75 10	 mov	 esi, DWORD PTR _long_options$[ebp]
  009b1	8b 54 11 08	 mov	 edx, DWORD PTR [ecx+edx+8]
  009b5	3b 54 06 08	 cmp	 edx, DWORD PTR [esi+eax+8]
  009b9	75 1c		 jne	 SHORT $LN23@parse_long
  009bb	8b 45 f4	 mov	 eax, DWORD PTR _i$[ebp]
  009be	c1 e0 04	 shl	 eax, 4
  009c1	8b 4d ec	 mov	 ecx, DWORD PTR _match$[ebp]
  009c4	c1 e1 04	 shl	 ecx, 4
  009c7	8b 55 10	 mov	 edx, DWORD PTR _long_options$[ebp]
  009ca	8b 75 10	 mov	 esi, DWORD PTR _long_options$[ebp]
  009cd	8b 44 02 0c	 mov	 eax, DWORD PTR [edx+eax+12]
  009d1	3b 44 0e 0c	 cmp	 eax, DWORD PTR [esi+ecx+12]
  009d5	74 07		 je	 SHORT $LN25@parse_long
$LN23@parse_long:

; 337  : 			ambiguous = 1;

  009d7	c7 45 f0 01 00
	00 00		 mov	 DWORD PTR _ambiguous$[ebp], 1
$LN25@parse_long:

; 338  : 	}

  009de	e9 1c ff ff ff	 jmp	 $LN31@parse_long
$LN30@parse_long:

; 339  : 	if (ambiguous) {

  009e3	83 7d f0 00	 cmp	 DWORD PTR _ambiguous$[ebp], 0
  009e7	74 3d		 je	 SHORT $LN22@parse_long

; 340  : 		/* ambiguous abbreviation */
; 341  : 		if (PRINT_ERROR)

  009e9	83 3d 00 00 00
	00 00		 cmp	 DWORD PTR _opterr, 0
  009f0	74 20		 je	 SHORT $LN21@parse_long
  009f2	8b 4d 0c	 mov	 ecx, DWORD PTR _options$[ebp]
  009f5	0f be 11	 movsx	 edx, BYTE PTR [ecx]
  009f8	83 fa 3a	 cmp	 edx, 58			; 0000003aH
  009fb	74 15		 je	 SHORT $LN21@parse_long

; 342  : 			warnx(ambig, (int)current_argv_len,
; 343  : 			     current_argv);

  009fd	8b 45 fc	 mov	 eax, DWORD PTR _current_argv$[ebp]
  00a00	50		 push	 eax
  00a01	8b 4d f8	 mov	 ecx, DWORD PTR _current_argv_len$[ebp]
  00a04	51		 push	 ecx
  00a05	68 00 00 00 00	 push	 OFFSET _ambig
  00a0a	e8 00 00 00 00	 call	 _warnx
  00a0f	83 c4 0c	 add	 esp, 12			; 0000000cH
$LN21@parse_long:

; 344  : 		optopt = 0;

  00a12	c7 05 00 00 00
	00 00 00 00 00	 mov	 DWORD PTR _optopt, 0

; 345  : 		return (BADCH);

  00a1c	b8 3f 00 00 00	 mov	 eax, 63			; 0000003fH
  00a21	e9 27 02 00 00	 jmp	 $LN35@parse_long
$LN22@parse_long:

; 346  : 	}
; 347  : 	if (match != -1) {		/* option found */

  00a26	83 7d ec ff	 cmp	 DWORD PTR _match$[ebp], -1
  00a2a	0f 84 7d 01 00
	00		 je	 $LN20@parse_long

; 348  : 		if (long_options[match].has_arg == no_argument
; 349  : 		    && has_equal) {

  00a30	8b 55 ec	 mov	 edx, DWORD PTR _match$[ebp]
  00a33	c1 e2 04	 shl	 edx, 4
  00a36	8b 45 10	 mov	 eax, DWORD PTR _long_options$[ebp]
  00a39	83 7c 10 04 00	 cmp	 DWORD PTR [eax+edx+4], 0
  00a3e	75 75		 jne	 SHORT $LN19@parse_long
  00a40	83 7d e8 00	 cmp	 DWORD PTR _has_equal$[ebp], 0
  00a44	74 6f		 je	 SHORT $LN19@parse_long

; 350  : 			if (PRINT_ERROR)

  00a46	83 3d 00 00 00
	00 00		 cmp	 DWORD PTR _opterr, 0
  00a4d	74 20		 je	 SHORT $LN18@parse_long
  00a4f	8b 4d 0c	 mov	 ecx, DWORD PTR _options$[ebp]
  00a52	0f be 11	 movsx	 edx, BYTE PTR [ecx]
  00a55	83 fa 3a	 cmp	 edx, 58			; 0000003aH
  00a58	74 15		 je	 SHORT $LN18@parse_long

; 351  : 				warnx(noarg, (int)current_argv_len,
; 352  : 				     current_argv);

  00a5a	8b 45 fc	 mov	 eax, DWORD PTR _current_argv$[ebp]
  00a5d	50		 push	 eax
  00a5e	8b 4d f8	 mov	 ecx, DWORD PTR _current_argv_len$[ebp]
  00a61	51		 push	 ecx
  00a62	68 00 00 00 00	 push	 OFFSET _noarg
  00a67	e8 00 00 00 00	 call	 _warnx
  00a6c	83 c4 0c	 add	 esp, 12			; 0000000cH
$LN18@parse_long:

; 353  : 			/*
; 354  : 			 * XXX: GNU sets optopt to val regardless of flag
; 355  : 			 */
; 356  : 			if (long_options[match].flag == NULL)

  00a6f	8b 55 ec	 mov	 edx, DWORD PTR _match$[ebp]
  00a72	c1 e2 04	 shl	 edx, 4
  00a75	8b 45 10	 mov	 eax, DWORD PTR _long_options$[ebp]
  00a78	83 7c 10 08 00	 cmp	 DWORD PTR [eax+edx+8], 0
  00a7d	75 14		 jne	 SHORT $LN17@parse_long

; 357  : 				optopt = long_options[match].val;

  00a7f	8b 4d ec	 mov	 ecx, DWORD PTR _match$[ebp]
  00a82	c1 e1 04	 shl	 ecx, 4
  00a85	8b 55 10	 mov	 edx, DWORD PTR _long_options$[ebp]
  00a88	8b 44 0a 0c	 mov	 eax, DWORD PTR [edx+ecx+12]
  00a8c	a3 00 00 00 00	 mov	 DWORD PTR _optopt, eax

; 358  : 			else

  00a91	eb 0a		 jmp	 SHORT $LN16@parse_long
$LN17@parse_long:

; 359  : 				optopt = 0;

  00a93	c7 05 00 00 00
	00 00 00 00 00	 mov	 DWORD PTR _optopt, 0
$LN16@parse_long:

; 360  : 			return (BADARG);

  00a9d	8b 4d 0c	 mov	 ecx, DWORD PTR _options$[ebp]
  00aa0	0f be 01	 movsx	 eax, BYTE PTR [ecx]
  00aa3	83 e8 3a	 sub	 eax, 58			; 0000003aH
  00aa6	f7 d8		 neg	 eax
  00aa8	1b c0		 sbb	 eax, eax
  00aaa	83 e0 05	 and	 eax, 5
  00aad	83 c0 3a	 add	 eax, 58			; 0000003aH
  00ab0	e9 98 01 00 00	 jmp	 $LN35@parse_long
$LN19@parse_long:

; 361  : 		}
; 362  : 		if (long_options[match].has_arg == required_argument ||
; 363  : 		    long_options[match].has_arg == optional_argument) {

  00ab5	8b 55 ec	 mov	 edx, DWORD PTR _match$[ebp]
  00ab8	c1 e2 04	 shl	 edx, 4
  00abb	8b 45 10	 mov	 eax, DWORD PTR _long_options$[ebp]
  00abe	83 7c 10 04 01	 cmp	 DWORD PTR [eax+edx+4], 1
  00ac3	74 10		 je	 SHORT $LN14@parse_long
  00ac5	8b 4d ec	 mov	 ecx, DWORD PTR _match$[ebp]
  00ac8	c1 e1 04	 shl	 ecx, 4
  00acb	8b 55 10	 mov	 edx, DWORD PTR _long_options$[ebp]
  00ace	83 7c 0a 04 02	 cmp	 DWORD PTR [edx+ecx+4], 2
  00ad3	75 3e		 jne	 SHORT $LN15@parse_long
$LN14@parse_long:

; 364  : 			if (has_equal)

  00ad5	83 7d e8 00	 cmp	 DWORD PTR _has_equal$[ebp], 0
  00ad9	74 0a		 je	 SHORT $LN13@parse_long

; 365  : 				optarg = has_equal;

  00adb	8b 45 e8	 mov	 eax, DWORD PTR _has_equal$[ebp]
  00ade	a3 00 00 00 00	 mov	 DWORD PTR _optarg, eax

; 366  : 			else if (long_options[match].has_arg ==

  00ae3	eb 2e		 jmp	 SHORT $LN15@parse_long
$LN13@parse_long:

; 367  : 			    required_argument) {

  00ae5	8b 4d ec	 mov	 ecx, DWORD PTR _match$[ebp]
  00ae8	c1 e1 04	 shl	 ecx, 4
  00aeb	8b 55 10	 mov	 edx, DWORD PTR _long_options$[ebp]
  00aee	83 7c 0a 04 01	 cmp	 DWORD PTR [edx+ecx+4], 1
  00af3	75 1e		 jne	 SHORT $LN15@parse_long

; 368  : 				/*
; 369  : 				 * optional argument doesn't use next nargv
; 370  : 				 */
; 371  : 				optarg = nargv[optind++];

  00af5	a1 00 00 00 00	 mov	 eax, DWORD PTR _optind
  00afa	8b 4d 08	 mov	 ecx, DWORD PTR _nargv$[ebp]
  00afd	8b 14 81	 mov	 edx, DWORD PTR [ecx+eax*4]
  00b00	89 15 00 00 00
	00		 mov	 DWORD PTR _optarg, edx
  00b06	a1 00 00 00 00	 mov	 eax, DWORD PTR _optind
  00b0b	83 c0 01	 add	 eax, 1
  00b0e	a3 00 00 00 00	 mov	 DWORD PTR _optind, eax
$LN15@parse_long:

; 372  : 			}
; 373  : 		}
; 374  : 		if ((long_options[match].has_arg == required_argument)
; 375  : 		    && (optarg == NULL)) {

  00b13	8b 4d ec	 mov	 ecx, DWORD PTR _match$[ebp]
  00b16	c1 e1 04	 shl	 ecx, 4
  00b19	8b 55 10	 mov	 edx, DWORD PTR _long_options$[ebp]
  00b1c	83 7c 0a 04 01	 cmp	 DWORD PTR [edx+ecx+4], 1
  00b21	0f 85 84 00 00
	00		 jne	 $LN10@parse_long
  00b27	83 3d 00 00 00
	00 00		 cmp	 DWORD PTR _optarg, 0
  00b2e	75 7b		 jne	 SHORT $LN10@parse_long

; 376  : 			/*
; 377  : 			 * Missing argument; leading ':' indicates no error
; 378  : 			 * should be generated.
; 379  : 			 */
; 380  : 			if (PRINT_ERROR)

  00b30	83 3d 00 00 00
	00 00		 cmp	 DWORD PTR _opterr, 0
  00b37	74 1c		 je	 SHORT $LN9@parse_long
  00b39	8b 45 0c	 mov	 eax, DWORD PTR _options$[ebp]
  00b3c	0f be 08	 movsx	 ecx, BYTE PTR [eax]
  00b3f	83 f9 3a	 cmp	 ecx, 58			; 0000003aH
  00b42	74 11		 je	 SHORT $LN9@parse_long

; 381  : 				warnx(recargstring,
; 382  : 				    current_argv);

  00b44	8b 55 fc	 mov	 edx, DWORD PTR _current_argv$[ebp]
  00b47	52		 push	 edx
  00b48	68 00 00 00 00	 push	 OFFSET _recargstring
  00b4d	e8 00 00 00 00	 call	 _warnx
  00b52	83 c4 08	 add	 esp, 8
$LN9@parse_long:

; 383  : 			/*
; 384  : 			 * XXX: GNU sets optopt to val regardless of flag
; 385  : 			 */
; 386  : 			if (long_options[match].flag == NULL)

  00b55	8b 45 ec	 mov	 eax, DWORD PTR _match$[ebp]
  00b58	c1 e0 04	 shl	 eax, 4
  00b5b	8b 4d 10	 mov	 ecx, DWORD PTR _long_options$[ebp]
  00b5e	83 7c 01 08 00	 cmp	 DWORD PTR [ecx+eax+8], 0
  00b63	75 15		 jne	 SHORT $LN8@parse_long

; 387  : 				optopt = long_options[match].val;

  00b65	8b 55 ec	 mov	 edx, DWORD PTR _match$[ebp]
  00b68	c1 e2 04	 shl	 edx, 4
  00b6b	8b 45 10	 mov	 eax, DWORD PTR _long_options$[ebp]
  00b6e	8b 4c 10 0c	 mov	 ecx, DWORD PTR [eax+edx+12]
  00b72	89 0d 00 00 00
	00		 mov	 DWORD PTR _optopt, ecx

; 388  : 			else

  00b78	eb 0a		 jmp	 SHORT $LN7@parse_long
$LN8@parse_long:

; 389  : 				optopt = 0;

  00b7a	c7 05 00 00 00
	00 00 00 00 00	 mov	 DWORD PTR _optopt, 0
$LN7@parse_long:

; 390  : 			--optind;

  00b84	8b 15 00 00 00
	00		 mov	 edx, DWORD PTR _optind
  00b8a	83 ea 01	 sub	 edx, 1
  00b8d	89 15 00 00 00
	00		 mov	 DWORD PTR _optind, edx

; 391  : 			return (BADARG);

  00b93	8b 45 0c	 mov	 eax, DWORD PTR _options$[ebp]
  00b96	0f be 00	 movsx	 eax, BYTE PTR [eax]
  00b99	83 e8 3a	 sub	 eax, 58			; 0000003aH
  00b9c	f7 d8		 neg	 eax
  00b9e	1b c0		 sbb	 eax, eax
  00ba0	83 e0 05	 and	 eax, 5
  00ba3	83 c0 3a	 add	 eax, 58			; 0000003aH
  00ba6	e9 a2 00 00 00	 jmp	 $LN35@parse_long
$LN10@parse_long:

; 392  : 		}
; 393  : 	} else {			/* unknown option */

  00bab	eb 53		 jmp	 SHORT $LN6@parse_long
$LN20@parse_long:

; 394  : 		if (short_too) {

  00bad	83 7d 18 00	 cmp	 DWORD PTR _short_too$[ebp], 0
  00bb1	74 17		 je	 SHORT $LN5@parse_long

; 395  : 			--optind;

  00bb3	8b 0d 00 00 00
	00		 mov	 ecx, DWORD PTR _optind
  00bb9	83 e9 01	 sub	 ecx, 1
  00bbc	89 0d 00 00 00
	00		 mov	 DWORD PTR _optind, ecx

; 396  : 			return (-1);

  00bc2	83 c8 ff	 or	 eax, -1
  00bc5	e9 83 00 00 00	 jmp	 $LN35@parse_long
$LN5@parse_long:

; 397  : 		}
; 398  : 		if (PRINT_ERROR)

  00bca	83 3d 00 00 00
	00 00		 cmp	 DWORD PTR _opterr, 0
  00bd1	74 1c		 je	 SHORT $LN4@parse_long
  00bd3	8b 55 0c	 mov	 edx, DWORD PTR _options$[ebp]
  00bd6	0f be 02	 movsx	 eax, BYTE PTR [edx]
  00bd9	83 f8 3a	 cmp	 eax, 58			; 0000003aH
  00bdc	74 11		 je	 SHORT $LN4@parse_long

; 399  : 			warnx(illoptstring, current_argv);

  00bde	8b 4d fc	 mov	 ecx, DWORD PTR _current_argv$[ebp]
  00be1	51		 push	 ecx
  00be2	68 00 00 00 00	 push	 OFFSET _illoptstring
  00be7	e8 00 00 00 00	 call	 _warnx
  00bec	83 c4 08	 add	 esp, 8
$LN4@parse_long:

; 400  : 		optopt = 0;

  00bef	c7 05 00 00 00
	00 00 00 00 00	 mov	 DWORD PTR _optopt, 0

; 401  : 		return (BADCH);

  00bf9	b8 3f 00 00 00	 mov	 eax, 63			; 0000003fH
  00bfe	eb 4d		 jmp	 SHORT $LN35@parse_long
$LN6@parse_long:

; 402  : 	}
; 403  : 	if (idx)

  00c00	83 7d 14 00	 cmp	 DWORD PTR _idx$[ebp], 0
  00c04	74 08		 je	 SHORT $LN3@parse_long

; 404  : 		*idx = match;

  00c06	8b 55 14	 mov	 edx, DWORD PTR _idx$[ebp]
  00c09	8b 45 ec	 mov	 eax, DWORD PTR _match$[ebp]
  00c0c	89 02		 mov	 DWORD PTR [edx], eax
$LN3@parse_long:

; 405  : 	if (long_options[match].flag) {

  00c0e	8b 4d ec	 mov	 ecx, DWORD PTR _match$[ebp]
  00c11	c1 e1 04	 shl	 ecx, 4
  00c14	8b 55 10	 mov	 edx, DWORD PTR _long_options$[ebp]
  00c17	83 7c 0a 08 00	 cmp	 DWORD PTR [edx+ecx+8], 0
  00c1c	74 22		 je	 SHORT $LN2@parse_long

; 406  : 		*long_options[match].flag = long_options[match].val;

  00c1e	8b 45 ec	 mov	 eax, DWORD PTR _match$[ebp]
  00c21	c1 e0 04	 shl	 eax, 4
  00c24	8b 4d ec	 mov	 ecx, DWORD PTR _match$[ebp]
  00c27	c1 e1 04	 shl	 ecx, 4
  00c2a	8b 55 10	 mov	 edx, DWORD PTR _long_options$[ebp]
  00c2d	8b 4c 0a 08	 mov	 ecx, DWORD PTR [edx+ecx+8]
  00c31	8b 55 10	 mov	 edx, DWORD PTR _long_options$[ebp]
  00c34	8b 44 02 0c	 mov	 eax, DWORD PTR [edx+eax+12]
  00c38	89 01		 mov	 DWORD PTR [ecx], eax

; 407  : 		return (0);

  00c3a	33 c0		 xor	 eax, eax
  00c3c	eb 0f		 jmp	 SHORT $LN35@parse_long

; 408  : 	} else

  00c3e	eb 0d		 jmp	 SHORT $LN35@parse_long
$LN2@parse_long:

; 409  : 		return (long_options[match].val);

  00c40	8b 4d ec	 mov	 ecx, DWORD PTR _match$[ebp]
  00c43	c1 e1 04	 shl	 ecx, 4
  00c46	8b 55 10	 mov	 edx, DWORD PTR _long_options$[ebp]
  00c49	8b 44 0a 0c	 mov	 eax, DWORD PTR [edx+ecx+12]
$LN35@parse_long:

; 410  : #undef IDENTICAL_INTERPRETATION
; 411  : }

  00c4d	5e		 pop	 esi
  00c4e	8b e5		 mov	 esp, ebp
  00c50	5d		 pop	 ebp
  00c51	c3		 ret	 0
_parse_long_options ENDP
_TEXT	ENDS
PUBLIC	_getopt_long
; Function compile flags: /Odtp
_TEXT	SEGMENT
_nargc$ = 8						; size = 4
_nargv$ = 12						; size = 4
_options$ = 16						; size = 4
_long_options$ = 20					; size = 4
_idx$ = 24						; size = 4
_getopt_long PROC

; 617  : {

  00c60	55		 push	 ebp
  00c61	8b ec		 mov	 ebp, esp

; 618  : 
; 619  : 	return (getopt_internal(nargc, nargv, options, long_options, idx,
; 620  : 	    FLAG_PERMUTE));

  00c63	6a 01		 push	 1
  00c65	8b 45 18	 mov	 eax, DWORD PTR _idx$[ebp]
  00c68	50		 push	 eax
  00c69	8b 4d 14	 mov	 ecx, DWORD PTR _long_options$[ebp]
  00c6c	51		 push	 ecx
  00c6d	8b 55 10	 mov	 edx, DWORD PTR _options$[ebp]
  00c70	52		 push	 edx
  00c71	8b 45 0c	 mov	 eax, DWORD PTR _nargv$[ebp]
  00c74	50		 push	 eax
  00c75	8b 4d 08	 mov	 ecx, DWORD PTR _nargc$[ebp]
  00c78	51		 push	 ecx
  00c79	e8 00 00 00 00	 call	 _getopt_internal
  00c7e	83 c4 18	 add	 esp, 24			; 00000018H

; 621  : }

  00c81	5d		 pop	 ebp
  00c82	c3		 ret	 0
_getopt_long ENDP
_TEXT	ENDS
PUBLIC	_getopt_long_only
; Function compile flags: /Odtp
_TEXT	SEGMENT
_nargc$ = 8						; size = 4
_nargv$ = 12						; size = 4
_options$ = 16						; size = 4
_long_options$ = 20					; size = 4
_idx$ = 24						; size = 4
_getopt_long_only PROC

; 630  : {

  00c90	55		 push	 ebp
  00c91	8b ec		 mov	 ebp, esp

; 631  : 
; 632  : 	return (getopt_internal(nargc, nargv, options, long_options, idx,
; 633  : 	    FLAG_PERMUTE|FLAG_LONGONLY));

  00c93	6a 05		 push	 5
  00c95	8b 45 18	 mov	 eax, DWORD PTR _idx$[ebp]
  00c98	50		 push	 eax
  00c99	8b 4d 14	 mov	 ecx, DWORD PTR _long_options$[ebp]
  00c9c	51		 push	 ecx
  00c9d	8b 55 10	 mov	 edx, DWORD PTR _options$[ebp]
  00ca0	52		 push	 edx
  00ca1	8b 45 0c	 mov	 eax, DWORD PTR _nargv$[ebp]
  00ca4	50		 push	 eax
  00ca5	8b 4d 08	 mov	 ecx, DWORD PTR _nargc$[ebp]
  00ca8	51		 push	 ecx
  00ca9	e8 00 00 00 00	 call	 _getopt_internal
  00cae	83 c4 18	 add	 esp, 24			; 00000018H

; 634  : }

  00cb1	5d		 pop	 ebp
  00cb2	c3		 ret	 0
_getopt_long_only ENDP
_TEXT	ENDS
PUBLIC	_atl_fgetsp
EXTRN	_ungetc:PROC
EXTRN	_getc:PROC
; Function compile flags: /Odtp
; File c:\a15\facultate\forth\atlast-1.2\atlast.c
_TEXT	SEGMENT
_ch$ = -8						; size = 4
_i$ = -4						; size = 4
_s$ = 8							; size = 4
_n$ = 12						; size = 4
_stream$ = 16						; size = 4
_atl_fgetsp PROC

; 500  : {

  00cc0	55		 push	 ebp
  00cc1	8b ec		 mov	 ebp, esp
  00cc3	83 ec 08	 sub	 esp, 8

; 501  : 	int i = 0, ch;

  00cc6	c7 45 fc 00 00
	00 00		 mov	 DWORD PTR _i$[ebp], 0
$LN9@atl_fgetsp:

; 502  : 
; 503  : 	while (True) {

  00ccd	b8 01 00 00 00	 mov	 eax, 1
  00cd2	85 c0		 test	 eax, eax
  00cd4	0f 84 a2 00 00
	00		 je	 $LN8@atl_fgetsp

; 504  : 	   ch = getc(stream);

  00cda	8b 4d 10	 mov	 ecx, DWORD PTR _stream$[ebp]
  00cdd	51		 push	 ecx
  00cde	e8 00 00 00 00	 call	 _getc
  00ce3	83 c4 04	 add	 esp, 4
  00ce6	89 45 f8	 mov	 DWORD PTR _ch$[ebp], eax

; 505  : 	   if (ch == EOF) {

  00ce9	83 7d f8 ff	 cmp	 DWORD PTR _ch$[ebp], -1
  00ced	75 0f		 jne	 SHORT $LN7@atl_fgetsp

; 506  : 	      if (i == 0)

  00cef	83 7d fc 00	 cmp	 DWORD PTR _i$[ebp], 0
  00cf3	75 07		 jne	 SHORT $LN6@atl_fgetsp

; 507  : 		 return NULL;

  00cf5	33 c0		 xor	 eax, eax
  00cf7	e9 8c 00 00 00	 jmp	 $LN10@atl_fgetsp
$LN6@atl_fgetsp:

; 508  : 	      break;

  00cfc	eb 7e		 jmp	 SHORT $LN8@atl_fgetsp
$LN7@atl_fgetsp:

; 509  : 	   }
; 510  :            if (ch == '\r') {

  00cfe	83 7d f8 0d	 cmp	 DWORD PTR _ch$[ebp], 13	; 0000000dH
  00d02	75 27		 jne	 SHORT $LN5@atl_fgetsp

; 511  : 	      ch = getc(stream);

  00d04	8b 55 10	 mov	 edx, DWORD PTR _stream$[ebp]
  00d07	52		 push	 edx
  00d08	e8 00 00 00 00	 call	 _getc
  00d0d	83 c4 04	 add	 esp, 4
  00d10	89 45 f8	 mov	 DWORD PTR _ch$[ebp], eax

; 512  :               if (ch != '\n')

  00d13	83 7d f8 0a	 cmp	 DWORD PTR _ch$[ebp], 10	; 0000000aH
  00d17	74 10		 je	 SHORT $LN4@atl_fgetsp

; 513  : 		 V ungetc(ch, stream);

  00d19	8b 45 10	 mov	 eax, DWORD PTR _stream$[ebp]
  00d1c	50		 push	 eax
  00d1d	8b 4d f8	 mov	 ecx, DWORD PTR _ch$[ebp]
  00d20	51		 push	 ecx
  00d21	e8 00 00 00 00	 call	 _ungetc
  00d26	83 c4 08	 add	 esp, 8
$LN4@atl_fgetsp:

; 514  : 	      break;

  00d29	eb 51		 jmp	 SHORT $LN8@atl_fgetsp
$LN5@atl_fgetsp:

; 515  : 	   }
; 516  :            if (ch == '\n') {

  00d2b	83 7d f8 0a	 cmp	 DWORD PTR _ch$[ebp], 10	; 0000000aH
  00d2f	75 27		 jne	 SHORT $LN3@atl_fgetsp

; 517  : 	      ch = getc(stream);

  00d31	8b 55 10	 mov	 edx, DWORD PTR _stream$[ebp]
  00d34	52		 push	 edx
  00d35	e8 00 00 00 00	 call	 _getc
  00d3a	83 c4 04	 add	 esp, 4
  00d3d	89 45 f8	 mov	 DWORD PTR _ch$[ebp], eax

; 518  :               if (ch != '\r')

  00d40	83 7d f8 0d	 cmp	 DWORD PTR _ch$[ebp], 13	; 0000000dH
  00d44	74 10		 je	 SHORT $LN2@atl_fgetsp

; 519  : 		 V ungetc(ch, stream);

  00d46	8b 45 10	 mov	 eax, DWORD PTR _stream$[ebp]
  00d49	50		 push	 eax
  00d4a	8b 4d f8	 mov	 ecx, DWORD PTR _ch$[ebp]
  00d4d	51		 push	 ecx
  00d4e	e8 00 00 00 00	 call	 _ungetc
  00d53	83 c4 08	 add	 esp, 8
$LN2@atl_fgetsp:

; 520  : 	      break;

  00d56	eb 24		 jmp	 SHORT $LN8@atl_fgetsp
$LN3@atl_fgetsp:

; 521  : 	   }
; 522  : 	   if (i < (n - 1))

  00d58	8b 55 0c	 mov	 edx, DWORD PTR _n$[ebp]
  00d5b	83 ea 01	 sub	 edx, 1
  00d5e	39 55 fc	 cmp	 DWORD PTR _i$[ebp], edx
  00d61	7d 14		 jge	 SHORT $LN1@atl_fgetsp

; 523  : 	      s[i++] = ch;

  00d63	8b 45 08	 mov	 eax, DWORD PTR _s$[ebp]
  00d66	03 45 fc	 add	 eax, DWORD PTR _i$[ebp]
  00d69	8a 4d f8	 mov	 cl, BYTE PTR _ch$[ebp]
  00d6c	88 08		 mov	 BYTE PTR [eax], cl
  00d6e	8b 55 fc	 mov	 edx, DWORD PTR _i$[ebp]
  00d71	83 c2 01	 add	 edx, 1
  00d74	89 55 fc	 mov	 DWORD PTR _i$[ebp], edx
$LN1@atl_fgetsp:

; 524  : 	}

  00d77	e9 51 ff ff ff	 jmp	 $LN9@atl_fgetsp
$LN8@atl_fgetsp:

; 525  : 	s[i] = EOS;

  00d7c	8b 45 08	 mov	 eax, DWORD PTR _s$[ebp]
  00d7f	03 45 fc	 add	 eax, DWORD PTR _i$[ebp]
  00d82	c6 00 00	 mov	 BYTE PTR [eax], 0

; 526  : 	return s;

  00d85	8b 45 08	 mov	 eax, DWORD PTR _s$[ebp]
$LN10@atl_fgetsp:

; 527  : }

  00d88	8b e5		 mov	 esp, ebp
  00d8a	5d		 pop	 ebp
  00d8b	c3		 ret	 0
_atl_fgetsp ENDP
_TEXT	ENDS
EXTRN	_printf:PROC
; Function compile flags: /Odtp
_TEXT	SEGMENT
_atl_memstat PROC

; 534  : {

  00d90	55		 push	 ebp
  00d91	8b ec		 mov	 ebp, esp

; 535  :     static char fmt[] = "   %-12s %6ld    %6ld    %6ld       %3ld\n";
; 536  : 
; 537  :     V printf("\n             Memory Usage Summary\n\n");

  00d93	68 00 00 00 00	 push	 OFFSET $SG83019
  00d98	e8 00 00 00 00	 call	 _printf
  00d9d	83 c4 04	 add	 esp, 4

; 538  :     V printf("                 Current   Maximum    Items     Percent\n");

  00da0	68 00 00 00 00	 push	 OFFSET $SG83021
  00da5	e8 00 00 00 00	 call	 _printf
  00daa	83 c4 04	 add	 esp, 4

; 539  :     V printf("  Memory Area     usage     used    allocated   in use \n");

  00dad	68 00 00 00 00	 push	 OFFSET $SG83023
  00db2	e8 00 00 00 00	 call	 _printf
  00db7	83 c4 04	 add	 esp, 4

; 540  : 
; 541  :     V printf(fmt, "Stack",
; 542  : 	((long) (stk - stack)),
; 543  : 	((long) (stackmax - stack)),
; 544  : 	atl_stklen,
; 545  : 	(100L * (stk - stack)) / atl_stklen);

  00dba	a1 00 00 00 00	 mov	 eax, DWORD PTR _atl__sp
  00dbf	2b 05 00 00 00
	00		 sub	 eax, DWORD PTR _atl__sk
  00dc5	c1 f8 02	 sar	 eax, 2
  00dc8	6b c0 64	 imul	 eax, 100		; 00000064H
  00dcb	99		 cdq
  00dcc	f7 3d 00 00 00
	00		 idiv	 DWORD PTR _atl_stklen
  00dd2	50		 push	 eax
  00dd3	a1 00 00 00 00	 mov	 eax, DWORD PTR _atl_stklen
  00dd8	50		 push	 eax
  00dd9	8b 0d 00 00 00
	00		 mov	 ecx, DWORD PTR _atl__sx
  00ddf	2b 0d 00 00 00
	00		 sub	 ecx, DWORD PTR _atl__sk
  00de5	c1 f9 02	 sar	 ecx, 2
  00de8	51		 push	 ecx
  00de9	8b 15 00 00 00
	00		 mov	 edx, DWORD PTR _atl__sp
  00def	2b 15 00 00 00
	00		 sub	 edx, DWORD PTR _atl__sk
  00df5	c1 fa 02	 sar	 edx, 2
  00df8	52		 push	 edx
  00df9	68 00 00 00 00	 push	 OFFSET $SG83027
  00dfe	68 00 00 00 00	 push	 OFFSET ?fmt@?1??atl_memstat@@9@9
  00e03	e8 00 00 00 00	 call	 _printf
  00e08	83 c4 18	 add	 esp, 24			; 00000018H

; 546  :     V printf(fmt, "Return stack",
; 547  : 	((long) (rstk - rstack)),
; 548  : 	((long) (rstackmax - rstack)),
; 549  : 	atl_rstklen,
; 550  : 	(100L * (rstk - rstack)) / atl_rstklen);

  00e0b	a1 00 00 00 00	 mov	 eax, DWORD PTR _atl__rp
  00e10	2b 05 00 00 00
	00		 sub	 eax, DWORD PTR _atl__rk
  00e16	c1 f8 02	 sar	 eax, 2
  00e19	6b c0 64	 imul	 eax, 100		; 00000064H
  00e1c	99		 cdq
  00e1d	f7 3d 00 00 00
	00		 idiv	 DWORD PTR _atl_rstklen
  00e23	50		 push	 eax
  00e24	a1 00 00 00 00	 mov	 eax, DWORD PTR _atl_rstklen
  00e29	50		 push	 eax
  00e2a	8b 0d 00 00 00
	00		 mov	 ecx, DWORD PTR _atl__rx
  00e30	2b 0d 00 00 00
	00		 sub	 ecx, DWORD PTR _atl__rk
  00e36	c1 f9 02	 sar	 ecx, 2
  00e39	51		 push	 ecx
  00e3a	8b 15 00 00 00
	00		 mov	 edx, DWORD PTR _atl__rp
  00e40	2b 15 00 00 00
	00		 sub	 edx, DWORD PTR _atl__rk
  00e46	c1 fa 02	 sar	 edx, 2
  00e49	52		 push	 edx
  00e4a	68 00 00 00 00	 push	 OFFSET $SG83031
  00e4f	68 00 00 00 00	 push	 OFFSET ?fmt@?1??atl_memstat@@9@9
  00e54	e8 00 00 00 00	 call	 _printf
  00e59	83 c4 18	 add	 esp, 24			; 00000018H

; 551  :     V printf(fmt, "Heap",
; 552  : 	((long) (hptr - heap)),
; 553  : 	((long) (heapmax - heap)),
; 554  : 	atl_heaplen,
; 555  : 	(100L * (hptr - heap)) / atl_heaplen);

  00e5c	a1 00 00 00 00	 mov	 eax, DWORD PTR _atl__hp
  00e61	2b 05 00 00 00
	00		 sub	 eax, DWORD PTR _atl__hb
  00e67	c1 f8 02	 sar	 eax, 2
  00e6a	6b c0 64	 imul	 eax, 100		; 00000064H
  00e6d	99		 cdq
  00e6e	f7 3d 00 00 00
	00		 idiv	 DWORD PTR _atl_heaplen
  00e74	50		 push	 eax
  00e75	a1 00 00 00 00	 mov	 eax, DWORD PTR _atl_heaplen
  00e7a	50		 push	 eax
  00e7b	8b 0d 00 00 00
	00		 mov	 ecx, DWORD PTR _atl__hx
  00e81	2b 0d 00 00 00
	00		 sub	 ecx, DWORD PTR _atl__hb
  00e87	c1 f9 02	 sar	 ecx, 2
  00e8a	51		 push	 ecx
  00e8b	8b 15 00 00 00
	00		 mov	 edx, DWORD PTR _atl__hp
  00e91	2b 15 00 00 00
	00		 sub	 edx, DWORD PTR _atl__hb
  00e97	c1 fa 02	 sar	 edx, 2
  00e9a	52		 push	 edx
  00e9b	68 00 00 00 00	 push	 OFFSET $SG83035
  00ea0	68 00 00 00 00	 push	 OFFSET ?fmt@?1??atl_memstat@@9@9
  00ea5	e8 00 00 00 00	 call	 _printf
  00eaa	83 c4 18	 add	 esp, 24			; 00000018H

; 556  : }

  00ead	5d		 pop	 ebp
  00eae	c3		 ret	 0
_atl_memstat ENDP
_TEXT	ENDS
PUBLIC	_atl__Esu
; Function compile flags: /Odtp
_TEXT	SEGMENT
_P_plus	PROC

; 607  : {

  00eb0	55		 push	 ebp
  00eb1	8b ec		 mov	 ebp, esp

; 608  :     Sl(2);

  00eb3	a1 00 00 00 00	 mov	 eax, DWORD PTR _atl__sp
  00eb8	2b 05 00 00 00
	00		 sub	 eax, DWORD PTR _atl__sk
  00ebe	c1 f8 02	 sar	 eax, 2
  00ec1	83 f8 02	 cmp	 eax, 2
  00ec4	7d 07		 jge	 SHORT $LN1@P_plus
  00ec6	e8 00 00 00 00	 call	 _atl__Esu
  00ecb	eb 29		 jmp	 SHORT $LN2@P_plus
$LN1@P_plus:

; 609  : /* printf("PLUS %lx + %lx = %lx\n", S1, S0, (S1 + S0)); */
; 610  :     S1 += S0;

  00ecd	8b 0d 00 00 00
	00		 mov	 ecx, DWORD PTR _atl__sp
  00ed3	8b 51 f8	 mov	 edx, DWORD PTR [ecx-8]
  00ed6	a1 00 00 00 00	 mov	 eax, DWORD PTR _atl__sp
  00edb	03 50 fc	 add	 edx, DWORD PTR [eax-4]
  00ede	8b 0d 00 00 00
	00		 mov	 ecx, DWORD PTR _atl__sp
  00ee4	89 51 f8	 mov	 DWORD PTR [ecx-8], edx

; 611  :     Pop;

  00ee7	8b 15 00 00 00
	00		 mov	 edx, DWORD PTR _atl__sp
  00eed	83 ea 04	 sub	 edx, 4
  00ef0	89 15 00 00 00
	00		 mov	 DWORD PTR _atl__sp, edx
$LN2@P_plus:

; 612  : }

  00ef6	5d		 pop	 ebp
  00ef7	c3		 ret	 0
_P_plus	ENDP
; Function compile flags: /Odtp
_P_minus PROC

; 615  : {

  00f00	55		 push	 ebp
  00f01	8b ec		 mov	 ebp, esp

; 616  :     Sl(2);

  00f03	a1 00 00 00 00	 mov	 eax, DWORD PTR _atl__sp
  00f08	2b 05 00 00 00
	00		 sub	 eax, DWORD PTR _atl__sk
  00f0e	c1 f8 02	 sar	 eax, 2
  00f11	83 f8 02	 cmp	 eax, 2
  00f14	7d 07		 jge	 SHORT $LN1@P_minus
  00f16	e8 00 00 00 00	 call	 _atl__Esu
  00f1b	eb 2a		 jmp	 SHORT $LN2@P_minus
$LN1@P_minus:

; 617  :     S1 -= S0;

  00f1d	8b 0d 00 00 00
	00		 mov	 ecx, DWORD PTR _atl__sp
  00f23	8b 15 00 00 00
	00		 mov	 edx, DWORD PTR _atl__sp
  00f29	8b 41 f8	 mov	 eax, DWORD PTR [ecx-8]
  00f2c	2b 42 fc	 sub	 eax, DWORD PTR [edx-4]
  00f2f	8b 0d 00 00 00
	00		 mov	 ecx, DWORD PTR _atl__sp
  00f35	89 41 f8	 mov	 DWORD PTR [ecx-8], eax

; 618  :     Pop;

  00f38	8b 15 00 00 00
	00		 mov	 edx, DWORD PTR _atl__sp
  00f3e	83 ea 04	 sub	 edx, 4
  00f41	89 15 00 00 00
	00		 mov	 DWORD PTR _atl__sp, edx
$LN2@P_minus:

; 619  : }

  00f47	5d		 pop	 ebp
  00f48	c3		 ret	 0
_P_minus ENDP
; Function compile flags: /Odtp
_P_times PROC

; 622  : {

  00f50	55		 push	 ebp
  00f51	8b ec		 mov	 ebp, esp

; 623  :     Sl(2);

  00f53	a1 00 00 00 00	 mov	 eax, DWORD PTR _atl__sp
  00f58	2b 05 00 00 00
	00		 sub	 eax, DWORD PTR _atl__sk
  00f5e	c1 f8 02	 sar	 eax, 2
  00f61	83 f8 02	 cmp	 eax, 2
  00f64	7d 07		 jge	 SHORT $LN1@P_times
  00f66	e8 00 00 00 00	 call	 _atl__Esu
  00f6b	eb 2b		 jmp	 SHORT $LN2@P_times
$LN1@P_times:

; 624  :     S1 *= S0;

  00f6d	8b 0d 00 00 00
	00		 mov	 ecx, DWORD PTR _atl__sp
  00f73	8b 15 00 00 00
	00		 mov	 edx, DWORD PTR _atl__sp
  00f79	8b 41 f8	 mov	 eax, DWORD PTR [ecx-8]
  00f7c	0f af 42 fc	 imul	 eax, DWORD PTR [edx-4]
  00f80	8b 0d 00 00 00
	00		 mov	 ecx, DWORD PTR _atl__sp
  00f86	89 41 f8	 mov	 DWORD PTR [ecx-8], eax

; 625  :     Pop;

  00f89	8b 15 00 00 00
	00		 mov	 edx, DWORD PTR _atl__sp
  00f8f	83 ea 04	 sub	 edx, 4
  00f92	89 15 00 00 00
	00		 mov	 DWORD PTR _atl__sp, edx
$LN2@P_times:

; 626  : }

  00f98	5d		 pop	 ebp
  00f99	c3		 ret	 0
_P_times ENDP
; Function compile flags: /Odtp
_P_div	PROC

; 629  : {

  00fa0	55		 push	 ebp
  00fa1	8b ec		 mov	 ebp, esp

; 630  :     Sl(2);

  00fa3	a1 00 00 00 00	 mov	 eax, DWORD PTR _atl__sp
  00fa8	2b 05 00 00 00
	00		 sub	 eax, DWORD PTR _atl__sk
  00fae	c1 f8 02	 sar	 eax, 2
  00fb1	83 f8 02	 cmp	 eax, 2
  00fb4	7d 07		 jge	 SHORT $LN2@P_div
  00fb6	e8 00 00 00 00	 call	 _atl__Esu
  00fbb	eb 3c		 jmp	 SHORT $LN3@P_div
$LN2@P_div:

; 631  : #ifndef NOMEMCHECK
; 632  :     if (S0 == 0) {

  00fbd	8b 0d 00 00 00
	00		 mov	 ecx, DWORD PTR _atl__sp
  00fc3	83 79 fc 00	 cmp	 DWORD PTR [ecx-4], 0
  00fc7	75 07		 jne	 SHORT $LN1@P_div

; 633  : 	divzero();

  00fc9	e8 00 00 00 00	 call	 _divzero

; 634  : 	return;

  00fce	eb 29		 jmp	 SHORT $LN3@P_div
$LN1@P_div:

; 635  :     }
; 636  : #endif /* NOMEMCHECK */
; 637  :     S1 /= S0;

  00fd0	8b 15 00 00 00
	00		 mov	 edx, DWORD PTR _atl__sp
  00fd6	8b 0d 00 00 00
	00		 mov	 ecx, DWORD PTR _atl__sp
  00fdc	8b 42 f8	 mov	 eax, DWORD PTR [edx-8]
  00fdf	99		 cdq
  00fe0	f7 79 fc	 idiv	 DWORD PTR [ecx-4]
  00fe3	8b 15 00 00 00
	00		 mov	 edx, DWORD PTR _atl__sp
  00fe9	89 42 f8	 mov	 DWORD PTR [edx-8], eax

; 638  :     Pop;

  00fec	a1 00 00 00 00	 mov	 eax, DWORD PTR _atl__sp
  00ff1	83 e8 04	 sub	 eax, 4
  00ff4	a3 00 00 00 00	 mov	 DWORD PTR _atl__sp, eax
$LN3@P_div:

; 639  : }

  00ff9	5d		 pop	 ebp
  00ffa	c3		 ret	 0
_P_div	ENDP
; Function compile flags: /Odtp
_P_mod	PROC

; 642  : {

  01000	55		 push	 ebp
  01001	8b ec		 mov	 ebp, esp

; 643  :     Sl(2);

  01003	a1 00 00 00 00	 mov	 eax, DWORD PTR _atl__sp
  01008	2b 05 00 00 00
	00		 sub	 eax, DWORD PTR _atl__sk
  0100e	c1 f8 02	 sar	 eax, 2
  01011	83 f8 02	 cmp	 eax, 2
  01014	7d 07		 jge	 SHORT $LN2@P_mod
  01016	e8 00 00 00 00	 call	 _atl__Esu
  0101b	eb 3d		 jmp	 SHORT $LN3@P_mod
$LN2@P_mod:

; 644  : #ifndef NOMEMCHECK
; 645  :     if (S0 == 0) {

  0101d	8b 0d 00 00 00
	00		 mov	 ecx, DWORD PTR _atl__sp
  01023	83 79 fc 00	 cmp	 DWORD PTR [ecx-4], 0
  01027	75 07		 jne	 SHORT $LN1@P_mod

; 646  : 	divzero();

  01029	e8 00 00 00 00	 call	 _divzero

; 647  : 	return;

  0102e	eb 2a		 jmp	 SHORT $LN3@P_mod
$LN1@P_mod:

; 648  :     }
; 649  : #endif /* NOMEMCHECK */
; 650  :     S1 %= S0;

  01030	8b 15 00 00 00
	00		 mov	 edx, DWORD PTR _atl__sp
  01036	8b 0d 00 00 00
	00		 mov	 ecx, DWORD PTR _atl__sp
  0103c	8b 42 f8	 mov	 eax, DWORD PTR [edx-8]
  0103f	99		 cdq
  01040	f7 79 fc	 idiv	 DWORD PTR [ecx-4]
  01043	a1 00 00 00 00	 mov	 eax, DWORD PTR _atl__sp
  01048	89 50 f8	 mov	 DWORD PTR [eax-8], edx

; 651  :     Pop;

  0104b	8b 0d 00 00 00
	00		 mov	 ecx, DWORD PTR _atl__sp
  01051	83 e9 04	 sub	 ecx, 4
  01054	89 0d 00 00 00
	00		 mov	 DWORD PTR _atl__sp, ecx
$LN3@P_mod:

; 652  : }

  0105a	5d		 pop	 ebp
  0105b	c3		 ret	 0
_P_mod	ENDP
; Function compile flags: /Odtp
_quot$ = -4						; size = 4
_P_divmod PROC

; 655  : {

  01060	55		 push	 ebp
  01061	8b ec		 mov	 ebp, esp
  01063	51		 push	 ecx

; 656  :     stackitem quot;
; 657  : 
; 658  :     Sl(2);

  01064	a1 00 00 00 00	 mov	 eax, DWORD PTR _atl__sp
  01069	2b 05 00 00 00
	00		 sub	 eax, DWORD PTR _atl__sk
  0106f	c1 f8 02	 sar	 eax, 2
  01072	83 f8 02	 cmp	 eax, 2
  01075	7d 07		 jge	 SHORT $LN2@P_divmod
  01077	e8 00 00 00 00	 call	 _atl__Esu
  0107c	eb 50		 jmp	 SHORT $LN3@P_divmod
$LN2@P_divmod:

; 659  : #ifndef NOMEMCHECK
; 660  :     if (S0 == 0) {

  0107e	8b 0d 00 00 00
	00		 mov	 ecx, DWORD PTR _atl__sp
  01084	83 79 fc 00	 cmp	 DWORD PTR [ecx-4], 0
  01088	75 07		 jne	 SHORT $LN1@P_divmod

; 661  : 	divzero();

  0108a	e8 00 00 00 00	 call	 _divzero

; 662  : 	return;

  0108f	eb 3d		 jmp	 SHORT $LN3@P_divmod
$LN1@P_divmod:

; 663  :     }
; 664  : #endif /* NOMEMCHECK */
; 665  :     quot = S1 / S0;

  01091	8b 15 00 00 00
	00		 mov	 edx, DWORD PTR _atl__sp
  01097	8b 0d 00 00 00
	00		 mov	 ecx, DWORD PTR _atl__sp
  0109d	8b 42 f8	 mov	 eax, DWORD PTR [edx-8]
  010a0	99		 cdq
  010a1	f7 79 fc	 idiv	 DWORD PTR [ecx-4]
  010a4	89 45 fc	 mov	 DWORD PTR _quot$[ebp], eax

; 666  :     S1 %= S0;

  010a7	8b 15 00 00 00
	00		 mov	 edx, DWORD PTR _atl__sp
  010ad	8b 0d 00 00 00
	00		 mov	 ecx, DWORD PTR _atl__sp
  010b3	8b 42 f8	 mov	 eax, DWORD PTR [edx-8]
  010b6	99		 cdq
  010b7	f7 79 fc	 idiv	 DWORD PTR [ecx-4]
  010ba	a1 00 00 00 00	 mov	 eax, DWORD PTR _atl__sp
  010bf	89 50 f8	 mov	 DWORD PTR [eax-8], edx

; 667  :     S0 = quot;

  010c2	8b 0d 00 00 00
	00		 mov	 ecx, DWORD PTR _atl__sp
  010c8	8b 55 fc	 mov	 edx, DWORD PTR _quot$[ebp]
  010cb	89 51 fc	 mov	 DWORD PTR [ecx-4], edx
$LN3@P_divmod:

; 668  : }

  010ce	8b e5		 mov	 esp, ebp
  010d0	5d		 pop	 ebp
  010d1	c3		 ret	 0
_P_divmod ENDP
; Function compile flags: /Odtp
tv73 = -4						; size = 4
_P_min	PROC

; 671  : {

  010e0	55		 push	 ebp
  010e1	8b ec		 mov	 ebp, esp
  010e3	51		 push	 ecx

; 672  :     Sl(2);

  010e4	a1 00 00 00 00	 mov	 eax, DWORD PTR _atl__sp
  010e9	2b 05 00 00 00
	00		 sub	 eax, DWORD PTR _atl__sk
  010ef	c1 f8 02	 sar	 eax, 2
  010f2	83 f8 02	 cmp	 eax, 2
  010f5	7d 07		 jge	 SHORT $LN1@P_min
  010f7	e8 00 00 00 00	 call	 _atl__Esu
  010fc	eb 48		 jmp	 SHORT $LN2@P_min
$LN1@P_min:

; 673  :     S1 = min(S1, S0);

  010fe	8b 0d 00 00 00
	00		 mov	 ecx, DWORD PTR _atl__sp
  01104	8b 15 00 00 00
	00		 mov	 edx, DWORD PTR _atl__sp
  0110a	8b 41 f8	 mov	 eax, DWORD PTR [ecx-8]
  0110d	3b 42 fc	 cmp	 eax, DWORD PTR [edx-4]
  01110	7f 0e		 jg	 SHORT $LN4@P_min
  01112	8b 0d 00 00 00
	00		 mov	 ecx, DWORD PTR _atl__sp
  01118	8b 51 f8	 mov	 edx, DWORD PTR [ecx-8]
  0111b	89 55 fc	 mov	 DWORD PTR tv73[ebp], edx
  0111e	eb 0b		 jmp	 SHORT $LN5@P_min
$LN4@P_min:
  01120	a1 00 00 00 00	 mov	 eax, DWORD PTR _atl__sp
  01125	8b 48 fc	 mov	 ecx, DWORD PTR [eax-4]
  01128	89 4d fc	 mov	 DWORD PTR tv73[ebp], ecx
$LN5@P_min:
  0112b	8b 15 00 00 00
	00		 mov	 edx, DWORD PTR _atl__sp
  01131	8b 45 fc	 mov	 eax, DWORD PTR tv73[ebp]
  01134	89 42 f8	 mov	 DWORD PTR [edx-8], eax

; 674  :     Pop;

  01137	8b 0d 00 00 00
	00		 mov	 ecx, DWORD PTR _atl__sp
  0113d	83 e9 04	 sub	 ecx, 4
  01140	89 0d 00 00 00
	00		 mov	 DWORD PTR _atl__sp, ecx
$LN2@P_min:

; 675  : }

  01146	8b e5		 mov	 esp, ebp
  01148	5d		 pop	 ebp
  01149	c3		 ret	 0
_P_min	ENDP
; Function compile flags: /Odtp
tv73 = -4						; size = 4
_P_max	PROC

; 678  : {

  01150	55		 push	 ebp
  01151	8b ec		 mov	 ebp, esp
  01153	51		 push	 ecx

; 679  :     Sl(2);

  01154	a1 00 00 00 00	 mov	 eax, DWORD PTR _atl__sp
  01159	2b 05 00 00 00
	00		 sub	 eax, DWORD PTR _atl__sk
  0115f	c1 f8 02	 sar	 eax, 2
  01162	83 f8 02	 cmp	 eax, 2
  01165	7d 07		 jge	 SHORT $LN1@P_max
  01167	e8 00 00 00 00	 call	 _atl__Esu
  0116c	eb 48		 jmp	 SHORT $LN2@P_max
$LN1@P_max:

; 680  :     S1 = max(S1, S0);

  0116e	8b 0d 00 00 00
	00		 mov	 ecx, DWORD PTR _atl__sp
  01174	8b 15 00 00 00
	00		 mov	 edx, DWORD PTR _atl__sp
  0117a	8b 41 f8	 mov	 eax, DWORD PTR [ecx-8]
  0117d	3b 42 fc	 cmp	 eax, DWORD PTR [edx-4]
  01180	7e 0e		 jle	 SHORT $LN4@P_max
  01182	8b 0d 00 00 00
	00		 mov	 ecx, DWORD PTR _atl__sp
  01188	8b 51 f8	 mov	 edx, DWORD PTR [ecx-8]
  0118b	89 55 fc	 mov	 DWORD PTR tv73[ebp], edx
  0118e	eb 0b		 jmp	 SHORT $LN5@P_max
$LN4@P_max:
  01190	a1 00 00 00 00	 mov	 eax, DWORD PTR _atl__sp
  01195	8b 48 fc	 mov	 ecx, DWORD PTR [eax-4]
  01198	89 4d fc	 mov	 DWORD PTR tv73[ebp], ecx
$LN5@P_max:
  0119b	8b 15 00 00 00
	00		 mov	 edx, DWORD PTR _atl__sp
  011a1	8b 45 fc	 mov	 eax, DWORD PTR tv73[ebp]
  011a4	89 42 f8	 mov	 DWORD PTR [edx-8], eax

; 681  :     Pop;

  011a7	8b 0d 00 00 00
	00		 mov	 ecx, DWORD PTR _atl__sp
  011ad	83 e9 04	 sub	 ecx, 4
  011b0	89 0d 00 00 00
	00		 mov	 DWORD PTR _atl__sp, ecx
$LN2@P_max:

; 682  : }

  011b6	8b e5		 mov	 esp, ebp
  011b8	5d		 pop	 ebp
  011b9	c3		 ret	 0
_P_max	ENDP
; Function compile flags: /Odtp
_P_neg	PROC

; 685  : {

  011c0	55		 push	 ebp
  011c1	8b ec		 mov	 ebp, esp

; 686  :     Sl(1);

  011c3	a1 00 00 00 00	 mov	 eax, DWORD PTR _atl__sp
  011c8	2b 05 00 00 00
	00		 sub	 eax, DWORD PTR _atl__sk
  011ce	c1 f8 02	 sar	 eax, 2
  011d1	83 f8 01	 cmp	 eax, 1
  011d4	7d 07		 jge	 SHORT $LN1@P_neg
  011d6	e8 00 00 00 00	 call	 _atl__Esu
  011db	eb 13		 jmp	 SHORT $LN2@P_neg
$LN1@P_neg:

; 687  :     S0 = - S0;

  011dd	8b 0d 00 00 00
	00		 mov	 ecx, DWORD PTR _atl__sp
  011e3	8b 51 fc	 mov	 edx, DWORD PTR [ecx-4]
  011e6	f7 da		 neg	 edx
  011e8	a1 00 00 00 00	 mov	 eax, DWORD PTR _atl__sp
  011ed	89 50 fc	 mov	 DWORD PTR [eax-4], edx
$LN2@P_neg:

; 688  : }

  011f0	5d		 pop	 ebp
  011f1	c3		 ret	 0
_P_neg	ENDP
; Function compile flags: /Odtp
tv73 = -4						; size = 4
_P_abs	PROC

; 691  : {

  01200	55		 push	 ebp
  01201	8b ec		 mov	 ebp, esp
  01203	51		 push	 ecx

; 692  :     Sl(1);

  01204	a1 00 00 00 00	 mov	 eax, DWORD PTR _atl__sp
  01209	2b 05 00 00 00
	00		 sub	 eax, DWORD PTR _atl__sk
  0120f	c1 f8 02	 sar	 eax, 2
  01212	83 f8 01	 cmp	 eax, 1
  01215	7d 07		 jge	 SHORT $LN1@P_abs
  01217	e8 00 00 00 00	 call	 _atl__Esu
  0121c	eb 33		 jmp	 SHORT $LN2@P_abs
$LN1@P_abs:

; 693  :     S0 = abs(S0);

  0121e	8b 0d 00 00 00
	00		 mov	 ecx, DWORD PTR _atl__sp
  01224	83 79 fc 00	 cmp	 DWORD PTR [ecx-4], 0
  01228	7d 10		 jge	 SHORT $LN4@P_abs
  0122a	8b 15 00 00 00
	00		 mov	 edx, DWORD PTR _atl__sp
  01230	8b 42 fc	 mov	 eax, DWORD PTR [edx-4]
  01233	f7 d8		 neg	 eax
  01235	89 45 fc	 mov	 DWORD PTR tv73[ebp], eax
  01238	eb 0c		 jmp	 SHORT $LN5@P_abs
$LN4@P_abs:
  0123a	8b 0d 00 00 00
	00		 mov	 ecx, DWORD PTR _atl__sp
  01240	8b 51 fc	 mov	 edx, DWORD PTR [ecx-4]
  01243	89 55 fc	 mov	 DWORD PTR tv73[ebp], edx
$LN5@P_abs:
  01246	a1 00 00 00 00	 mov	 eax, DWORD PTR _atl__sp
  0124b	8b 4d fc	 mov	 ecx, DWORD PTR tv73[ebp]
  0124e	89 48 fc	 mov	 DWORD PTR [eax-4], ecx
$LN2@P_abs:

; 694  : }

  01251	8b e5		 mov	 esp, ebp
  01253	5d		 pop	 ebp
  01254	c3		 ret	 0
_P_abs	ENDP
; Function compile flags: /Odtp
_P_equal PROC

; 697  : {

  01260	55		 push	 ebp
  01261	8b ec		 mov	 ebp, esp

; 698  :     Sl(2);

  01263	a1 00 00 00 00	 mov	 eax, DWORD PTR _atl__sp
  01268	2b 05 00 00 00
	00		 sub	 eax, DWORD PTR _atl__sk
  0126e	c1 f8 02	 sar	 eax, 2
  01271	83 f8 02	 cmp	 eax, 2
  01274	7d 07		 jge	 SHORT $LN1@P_equal
  01276	e8 00 00 00 00	 call	 _atl__Esu
  0127b	eb 33		 jmp	 SHORT $LN2@P_equal
$LN1@P_equal:

; 699  :     S1 = (S1 == S0) ? Truth : Falsity;

  0127d	8b 0d 00 00 00
	00		 mov	 ecx, DWORD PTR _atl__sp
  01283	8b 15 00 00 00
	00		 mov	 edx, DWORD PTR _atl__sp
  01289	8b 41 f8	 mov	 eax, DWORD PTR [ecx-8]
  0128c	2b 42 fc	 sub	 eax, DWORD PTR [edx-4]
  0128f	f7 d8		 neg	 eax
  01291	1b c0		 sbb	 eax, eax
  01293	f7 d8		 neg	 eax
  01295	83 e8 01	 sub	 eax, 1
  01298	8b 0d 00 00 00
	00		 mov	 ecx, DWORD PTR _atl__sp
  0129e	89 41 f8	 mov	 DWORD PTR [ecx-8], eax

; 700  :     Pop;

  012a1	8b 15 00 00 00
	00		 mov	 edx, DWORD PTR _atl__sp
  012a7	83 ea 04	 sub	 edx, 4
  012aa	89 15 00 00 00
	00		 mov	 DWORD PTR _atl__sp, edx
$LN2@P_equal:

; 701  : }

  012b0	5d		 pop	 ebp
  012b1	c3		 ret	 0
_P_equal ENDP
; Function compile flags: /Odtp
_P_unequal PROC

; 704  : {

  012c0	55		 push	 ebp
  012c1	8b ec		 mov	 ebp, esp

; 705  :     Sl(2);

  012c3	a1 00 00 00 00	 mov	 eax, DWORD PTR _atl__sp
  012c8	2b 05 00 00 00
	00		 sub	 eax, DWORD PTR _atl__sk
  012ce	c1 f8 02	 sar	 eax, 2
  012d1	83 f8 02	 cmp	 eax, 2
  012d4	7d 07		 jge	 SHORT $LN1@P_unequal
  012d6	e8 00 00 00 00	 call	 _atl__Esu
  012db	eb 2e		 jmp	 SHORT $LN2@P_unequal
$LN1@P_unequal:

; 706  :     S1 = (S1 != S0) ? Truth : Falsity;

  012dd	8b 0d 00 00 00
	00		 mov	 ecx, DWORD PTR _atl__sp
  012e3	8b 15 00 00 00
	00		 mov	 edx, DWORD PTR _atl__sp
  012e9	8b 41 f8	 mov	 eax, DWORD PTR [ecx-8]
  012ec	2b 42 fc	 sub	 eax, DWORD PTR [edx-4]
  012ef	f7 d8		 neg	 eax
  012f1	1b c0		 sbb	 eax, eax
  012f3	8b 0d 00 00 00
	00		 mov	 ecx, DWORD PTR _atl__sp
  012f9	89 41 f8	 mov	 DWORD PTR [ecx-8], eax

; 707  :     Pop;

  012fc	8b 15 00 00 00
	00		 mov	 edx, DWORD PTR _atl__sp
  01302	83 ea 04	 sub	 edx, 4
  01305	89 15 00 00 00
	00		 mov	 DWORD PTR _atl__sp, edx
$LN2@P_unequal:

; 708  : }

  0130b	5d		 pop	 ebp
  0130c	c3		 ret	 0
_P_unequal ENDP
; Function compile flags: /Odtp
_P_gtr	PROC

; 711  : {

  01310	55		 push	 ebp
  01311	8b ec		 mov	 ebp, esp

; 712  :     Sl(2);

  01313	a1 00 00 00 00	 mov	 eax, DWORD PTR _atl__sp
  01318	2b 05 00 00 00
	00		 sub	 eax, DWORD PTR _atl__sk
  0131e	c1 f8 02	 sar	 eax, 2
  01321	83 f8 02	 cmp	 eax, 2
  01324	7d 07		 jge	 SHORT $LN1@P_gtr
  01326	e8 00 00 00 00	 call	 _atl__Esu
  0132b	eb 30		 jmp	 SHORT $LN2@P_gtr
$LN1@P_gtr:

; 713  :     S1 = (S1 > S0) ? Truth : Falsity;

  0132d	8b 0d 00 00 00
	00		 mov	 ecx, DWORD PTR _atl__sp
  01333	8b 15 00 00 00
	00		 mov	 edx, DWORD PTR _atl__sp
  01339	8b 41 f8	 mov	 eax, DWORD PTR [ecx-8]
  0133c	33 c9		 xor	 ecx, ecx
  0133e	3b 42 fc	 cmp	 eax, DWORD PTR [edx-4]
  01341	0f 9e c1	 setle	 cl
  01344	83 e9 01	 sub	 ecx, 1
  01347	8b 15 00 00 00
	00		 mov	 edx, DWORD PTR _atl__sp
  0134d	89 4a f8	 mov	 DWORD PTR [edx-8], ecx

; 714  :     Pop;

  01350	a1 00 00 00 00	 mov	 eax, DWORD PTR _atl__sp
  01355	83 e8 04	 sub	 eax, 4
  01358	a3 00 00 00 00	 mov	 DWORD PTR _atl__sp, eax
$LN2@P_gtr:

; 715  : }

  0135d	5d		 pop	 ebp
  0135e	c3		 ret	 0
_P_gtr	ENDP
; Function compile flags: /Odtp
_P_lss	PROC

; 718  : {

  01360	55		 push	 ebp
  01361	8b ec		 mov	 ebp, esp

; 719  :     Sl(2);

  01363	a1 00 00 00 00	 mov	 eax, DWORD PTR _atl__sp
  01368	2b 05 00 00 00
	00		 sub	 eax, DWORD PTR _atl__sk
  0136e	c1 f8 02	 sar	 eax, 2
  01371	83 f8 02	 cmp	 eax, 2
  01374	7d 07		 jge	 SHORT $LN1@P_lss
  01376	e8 00 00 00 00	 call	 _atl__Esu
  0137b	eb 30		 jmp	 SHORT $LN2@P_lss
$LN1@P_lss:

; 720  :     S1 = (S1 < S0) ? Truth : Falsity;

  0137d	8b 0d 00 00 00
	00		 mov	 ecx, DWORD PTR _atl__sp
  01383	8b 15 00 00 00
	00		 mov	 edx, DWORD PTR _atl__sp
  01389	8b 41 f8	 mov	 eax, DWORD PTR [ecx-8]
  0138c	33 c9		 xor	 ecx, ecx
  0138e	3b 42 fc	 cmp	 eax, DWORD PTR [edx-4]
  01391	0f 9d c1	 setge	 cl
  01394	83 e9 01	 sub	 ecx, 1
  01397	8b 15 00 00 00
	00		 mov	 edx, DWORD PTR _atl__sp
  0139d	89 4a f8	 mov	 DWORD PTR [edx-8], ecx

; 721  :     Pop;

  013a0	a1 00 00 00 00	 mov	 eax, DWORD PTR _atl__sp
  013a5	83 e8 04	 sub	 eax, 4
  013a8	a3 00 00 00 00	 mov	 DWORD PTR _atl__sp, eax
$LN2@P_lss:

; 722  : }

  013ad	5d		 pop	 ebp
  013ae	c3		 ret	 0
_P_lss	ENDP
; Function compile flags: /Odtp
_P_geq	PROC

; 725  : {

  013b0	55		 push	 ebp
  013b1	8b ec		 mov	 ebp, esp

; 726  :     Sl(2);

  013b3	a1 00 00 00 00	 mov	 eax, DWORD PTR _atl__sp
  013b8	2b 05 00 00 00
	00		 sub	 eax, DWORD PTR _atl__sk
  013be	c1 f8 02	 sar	 eax, 2
  013c1	83 f8 02	 cmp	 eax, 2
  013c4	7d 07		 jge	 SHORT $LN1@P_geq
  013c6	e8 00 00 00 00	 call	 _atl__Esu
  013cb	eb 30		 jmp	 SHORT $LN2@P_geq
$LN1@P_geq:

; 727  :     S1 = (S1 >= S0) ? Truth : Falsity;

  013cd	8b 0d 00 00 00
	00		 mov	 ecx, DWORD PTR _atl__sp
  013d3	8b 15 00 00 00
	00		 mov	 edx, DWORD PTR _atl__sp
  013d9	8b 41 f8	 mov	 eax, DWORD PTR [ecx-8]
  013dc	33 c9		 xor	 ecx, ecx
  013de	3b 42 fc	 cmp	 eax, DWORD PTR [edx-4]
  013e1	0f 9c c1	 setl	 cl
  013e4	83 e9 01	 sub	 ecx, 1
  013e7	8b 15 00 00 00
	00		 mov	 edx, DWORD PTR _atl__sp
  013ed	89 4a f8	 mov	 DWORD PTR [edx-8], ecx

; 728  :     Pop;

  013f0	a1 00 00 00 00	 mov	 eax, DWORD PTR _atl__sp
  013f5	83 e8 04	 sub	 eax, 4
  013f8	a3 00 00 00 00	 mov	 DWORD PTR _atl__sp, eax
$LN2@P_geq:

; 729  : }

  013fd	5d		 pop	 ebp
  013fe	c3		 ret	 0
_P_geq	ENDP
; Function compile flags: /Odtp
_P_leq	PROC

; 732  : {

  01400	55		 push	 ebp
  01401	8b ec		 mov	 ebp, esp

; 733  :     Sl(2);

  01403	a1 00 00 00 00	 mov	 eax, DWORD PTR _atl__sp
  01408	2b 05 00 00 00
	00		 sub	 eax, DWORD PTR _atl__sk
  0140e	c1 f8 02	 sar	 eax, 2
  01411	83 f8 02	 cmp	 eax, 2
  01414	7d 07		 jge	 SHORT $LN1@P_leq
  01416	e8 00 00 00 00	 call	 _atl__Esu
  0141b	eb 30		 jmp	 SHORT $LN2@P_leq
$LN1@P_leq:

; 734  :     S1 = (S1 <= S0) ? Truth : Falsity;

  0141d	8b 0d 00 00 00
	00		 mov	 ecx, DWORD PTR _atl__sp
  01423	8b 15 00 00 00
	00		 mov	 edx, DWORD PTR _atl__sp
  01429	8b 41 f8	 mov	 eax, DWORD PTR [ecx-8]
  0142c	33 c9		 xor	 ecx, ecx
  0142e	3b 42 fc	 cmp	 eax, DWORD PTR [edx-4]
  01431	0f 9f c1	 setg	 cl
  01434	83 e9 01	 sub	 ecx, 1
  01437	8b 15 00 00 00
	00		 mov	 edx, DWORD PTR _atl__sp
  0143d	89 4a f8	 mov	 DWORD PTR [edx-8], ecx

; 735  :     Pop;

  01440	a1 00 00 00 00	 mov	 eax, DWORD PTR _atl__sp
  01445	83 e8 04	 sub	 eax, 4
  01448	a3 00 00 00 00	 mov	 DWORD PTR _atl__sp, eax
$LN2@P_leq:

; 736  : }

  0144d	5d		 pop	 ebp
  0144e	c3		 ret	 0
_P_leq	ENDP
; Function compile flags: /Odtp
_P_and	PROC

; 739  : {

  01450	55		 push	 ebp
  01451	8b ec		 mov	 ebp, esp

; 740  :     Sl(2);

  01453	a1 00 00 00 00	 mov	 eax, DWORD PTR _atl__sp
  01458	2b 05 00 00 00
	00		 sub	 eax, DWORD PTR _atl__sk
  0145e	c1 f8 02	 sar	 eax, 2
  01461	83 f8 02	 cmp	 eax, 2
  01464	7d 07		 jge	 SHORT $LN1@P_and
  01466	e8 00 00 00 00	 call	 _atl__Esu
  0146b	eb 2a		 jmp	 SHORT $LN2@P_and
$LN1@P_and:

; 741  : /* printf("AND %lx & %lx = %lx\n", S1, S0, (S1 & S0)); */
; 742  :     S1 &= S0;

  0146d	8b 0d 00 00 00
	00		 mov	 ecx, DWORD PTR _atl__sp
  01473	8b 15 00 00 00
	00		 mov	 edx, DWORD PTR _atl__sp
  01479	8b 41 f8	 mov	 eax, DWORD PTR [ecx-8]
  0147c	23 42 fc	 and	 eax, DWORD PTR [edx-4]
  0147f	8b 0d 00 00 00
	00		 mov	 ecx, DWORD PTR _atl__sp
  01485	89 41 f8	 mov	 DWORD PTR [ecx-8], eax

; 743  :     Pop;

  01488	8b 15 00 00 00
	00		 mov	 edx, DWORD PTR _atl__sp
  0148e	83 ea 04	 sub	 edx, 4
  01491	89 15 00 00 00
	00		 mov	 DWORD PTR _atl__sp, edx
$LN2@P_and:

; 744  : }

  01497	5d		 pop	 ebp
  01498	c3		 ret	 0
_P_and	ENDP
; Function compile flags: /Odtp
_P_or	PROC

; 747  : {

  014a0	55		 push	 ebp
  014a1	8b ec		 mov	 ebp, esp

; 748  :     Sl(2);

  014a3	a1 00 00 00 00	 mov	 eax, DWORD PTR _atl__sp
  014a8	2b 05 00 00 00
	00		 sub	 eax, DWORD PTR _atl__sk
  014ae	c1 f8 02	 sar	 eax, 2
  014b1	83 f8 02	 cmp	 eax, 2
  014b4	7d 07		 jge	 SHORT $LN1@P_or
  014b6	e8 00 00 00 00	 call	 _atl__Esu
  014bb	eb 2a		 jmp	 SHORT $LN2@P_or
$LN1@P_or:

; 749  :     S1 |= S0;

  014bd	8b 0d 00 00 00
	00		 mov	 ecx, DWORD PTR _atl__sp
  014c3	8b 15 00 00 00
	00		 mov	 edx, DWORD PTR _atl__sp
  014c9	8b 41 f8	 mov	 eax, DWORD PTR [ecx-8]
  014cc	0b 42 fc	 or	 eax, DWORD PTR [edx-4]
  014cf	8b 0d 00 00 00
	00		 mov	 ecx, DWORD PTR _atl__sp
  014d5	89 41 f8	 mov	 DWORD PTR [ecx-8], eax

; 750  :     Pop;

  014d8	8b 15 00 00 00
	00		 mov	 edx, DWORD PTR _atl__sp
  014de	83 ea 04	 sub	 edx, 4
  014e1	89 15 00 00 00
	00		 mov	 DWORD PTR _atl__sp, edx
$LN2@P_or:

; 751  : }

  014e7	5d		 pop	 ebp
  014e8	c3		 ret	 0
_P_or	ENDP
; Function compile flags: /Odtp
_P_xor	PROC

; 754  : {

  014f0	55		 push	 ebp
  014f1	8b ec		 mov	 ebp, esp

; 755  :     Sl(2);

  014f3	a1 00 00 00 00	 mov	 eax, DWORD PTR _atl__sp
  014f8	2b 05 00 00 00
	00		 sub	 eax, DWORD PTR _atl__sk
  014fe	c1 f8 02	 sar	 eax, 2
  01501	83 f8 02	 cmp	 eax, 2
  01504	7d 07		 jge	 SHORT $LN1@P_xor
  01506	e8 00 00 00 00	 call	 _atl__Esu
  0150b	eb 2a		 jmp	 SHORT $LN2@P_xor
$LN1@P_xor:

; 756  :     S1 ^= S0;

  0150d	8b 0d 00 00 00
	00		 mov	 ecx, DWORD PTR _atl__sp
  01513	8b 15 00 00 00
	00		 mov	 edx, DWORD PTR _atl__sp
  01519	8b 41 f8	 mov	 eax, DWORD PTR [ecx-8]
  0151c	33 42 fc	 xor	 eax, DWORD PTR [edx-4]
  0151f	8b 0d 00 00 00
	00		 mov	 ecx, DWORD PTR _atl__sp
  01525	89 41 f8	 mov	 DWORD PTR [ecx-8], eax

; 757  :     Pop;

  01528	8b 15 00 00 00
	00		 mov	 edx, DWORD PTR _atl__sp
  0152e	83 ea 04	 sub	 edx, 4
  01531	89 15 00 00 00
	00		 mov	 DWORD PTR _atl__sp, edx
$LN2@P_xor:

; 758  : }

  01537	5d		 pop	 ebp
  01538	c3		 ret	 0
_P_xor	ENDP
; Function compile flags: /Odtp
_P_not	PROC

; 761  : {

  01540	55		 push	 ebp
  01541	8b ec		 mov	 ebp, esp

; 762  :     Sl(1);

  01543	a1 00 00 00 00	 mov	 eax, DWORD PTR _atl__sp
  01548	2b 05 00 00 00
	00		 sub	 eax, DWORD PTR _atl__sk
  0154e	c1 f8 02	 sar	 eax, 2
  01551	83 f8 01	 cmp	 eax, 1
  01554	7d 07		 jge	 SHORT $LN1@P_not
  01556	e8 00 00 00 00	 call	 _atl__Esu
  0155b	eb 13		 jmp	 SHORT $LN2@P_not
$LN1@P_not:

; 763  :     S0 = ~S0;

  0155d	8b 0d 00 00 00
	00		 mov	 ecx, DWORD PTR _atl__sp
  01563	8b 51 fc	 mov	 edx, DWORD PTR [ecx-4]
  01566	f7 d2		 not	 edx
  01568	a1 00 00 00 00	 mov	 eax, DWORD PTR _atl__sp
  0156d	89 50 fc	 mov	 DWORD PTR [eax-4], edx
$LN2@P_not:

; 764  : }

  01570	5d		 pop	 ebp
  01571	c3		 ret	 0
_P_not	ENDP
; Function compile flags: /Odtp
tv77 = -4						; size = 4
_P_shift PROC

; 767  : {

  01580	55		 push	 ebp
  01581	8b ec		 mov	 ebp, esp
  01583	51		 push	 ecx

; 768  :     Sl(1);

  01584	a1 00 00 00 00	 mov	 eax, DWORD PTR _atl__sp
  01589	2b 05 00 00 00
	00		 sub	 eax, DWORD PTR _atl__sk
  0158f	c1 f8 02	 sar	 eax, 2
  01592	83 f8 01	 cmp	 eax, 1
  01595	7d 07		 jge	 SHORT $LN1@P_shift
  01597	e8 00 00 00 00	 call	 _atl__Esu
  0159c	eb 56		 jmp	 SHORT $LN2@P_shift
$LN1@P_shift:

; 769  :     S1 = (S0 < 0) ? (((unsigned long) S1) >> (-S0)) :
; 770  : 		    (((unsigned long) S1) <<   S0);

  0159e	8b 0d 00 00 00
	00		 mov	 ecx, DWORD PTR _atl__sp
  015a4	83 79 fc 00	 cmp	 DWORD PTR [ecx-4], 0
  015a8	7d 1a		 jge	 SHORT $LN4@P_shift
  015aa	8b 15 00 00 00
	00		 mov	 edx, DWORD PTR _atl__sp
  015b0	8b 4a fc	 mov	 ecx, DWORD PTR [edx-4]
  015b3	f7 d9		 neg	 ecx
  015b5	a1 00 00 00 00	 mov	 eax, DWORD PTR _atl__sp
  015ba	8b 50 f8	 mov	 edx, DWORD PTR [eax-8]
  015bd	d3 ea		 shr	 edx, cl
  015bf	89 55 fc	 mov	 DWORD PTR tv77[ebp], edx
  015c2	eb 16		 jmp	 SHORT $LN5@P_shift
$LN4@P_shift:
  015c4	a1 00 00 00 00	 mov	 eax, DWORD PTR _atl__sp
  015c9	8b 0d 00 00 00
	00		 mov	 ecx, DWORD PTR _atl__sp
  015cf	8b 50 f8	 mov	 edx, DWORD PTR [eax-8]
  015d2	8b 49 fc	 mov	 ecx, DWORD PTR [ecx-4]
  015d5	d3 e2		 shl	 edx, cl
  015d7	89 55 fc	 mov	 DWORD PTR tv77[ebp], edx
$LN5@P_shift:
  015da	a1 00 00 00 00	 mov	 eax, DWORD PTR _atl__sp
  015df	8b 4d fc	 mov	 ecx, DWORD PTR tv77[ebp]
  015e2	89 48 f8	 mov	 DWORD PTR [eax-8], ecx

; 771  :     Pop;

  015e5	8b 15 00 00 00
	00		 mov	 edx, DWORD PTR _atl__sp
  015eb	83 ea 04	 sub	 edx, 4
  015ee	89 15 00 00 00
	00		 mov	 DWORD PTR _atl__sp, edx
$LN2@P_shift:

; 772  : }

  015f4	8b e5		 mov	 esp, ebp
  015f6	5d		 pop	 ebp
  015f7	c3		 ret	 0
_P_shift ENDP
; Function compile flags: /Odtp
_P_1plus PROC

; 777  : {

  01600	55		 push	 ebp
  01601	8b ec		 mov	 ebp, esp

; 778  :     Sl(1);

  01603	a1 00 00 00 00	 mov	 eax, DWORD PTR _atl__sp
  01608	2b 05 00 00 00
	00		 sub	 eax, DWORD PTR _atl__sk
  0160e	c1 f8 02	 sar	 eax, 2
  01611	83 f8 01	 cmp	 eax, 1
  01614	7d 07		 jge	 SHORT $LN1@P_1plus
  01616	e8 00 00 00 00	 call	 _atl__Esu
  0161b	eb 14		 jmp	 SHORT $LN2@P_1plus
$LN1@P_1plus:

; 779  :     S0++;

  0161d	8b 0d 00 00 00
	00		 mov	 ecx, DWORD PTR _atl__sp
  01623	8b 51 fc	 mov	 edx, DWORD PTR [ecx-4]
  01626	83 c2 01	 add	 edx, 1
  01629	a1 00 00 00 00	 mov	 eax, DWORD PTR _atl__sp
  0162e	89 50 fc	 mov	 DWORD PTR [eax-4], edx
$LN2@P_1plus:

; 780  : }

  01631	5d		 pop	 ebp
  01632	c3		 ret	 0
_P_1plus ENDP
; Function compile flags: /Odtp
_P_2plus PROC

; 783  : {

  01640	55		 push	 ebp
  01641	8b ec		 mov	 ebp, esp

; 784  :     Sl(1);

  01643	a1 00 00 00 00	 mov	 eax, DWORD PTR _atl__sp
  01648	2b 05 00 00 00
	00		 sub	 eax, DWORD PTR _atl__sk
  0164e	c1 f8 02	 sar	 eax, 2
  01651	83 f8 01	 cmp	 eax, 1
  01654	7d 07		 jge	 SHORT $LN1@P_2plus
  01656	e8 00 00 00 00	 call	 _atl__Esu
  0165b	eb 14		 jmp	 SHORT $LN2@P_2plus
$LN1@P_2plus:

; 785  :     S0 += 2;

  0165d	8b 0d 00 00 00
	00		 mov	 ecx, DWORD PTR _atl__sp
  01663	8b 51 fc	 mov	 edx, DWORD PTR [ecx-4]
  01666	83 c2 02	 add	 edx, 2
  01669	a1 00 00 00 00	 mov	 eax, DWORD PTR _atl__sp
  0166e	89 50 fc	 mov	 DWORD PTR [eax-4], edx
$LN2@P_2plus:

; 786  : }

  01671	5d		 pop	 ebp
  01672	c3		 ret	 0
_P_2plus ENDP
; Function compile flags: /Odtp
_P_1minus PROC

; 789  : {

  01680	55		 push	 ebp
  01681	8b ec		 mov	 ebp, esp

; 790  :     Sl(1);

  01683	a1 00 00 00 00	 mov	 eax, DWORD PTR _atl__sp
  01688	2b 05 00 00 00
	00		 sub	 eax, DWORD PTR _atl__sk
  0168e	c1 f8 02	 sar	 eax, 2
  01691	83 f8 01	 cmp	 eax, 1
  01694	7d 07		 jge	 SHORT $LN1@P_1minus
  01696	e8 00 00 00 00	 call	 _atl__Esu
  0169b	eb 14		 jmp	 SHORT $LN2@P_1minus
$LN1@P_1minus:

; 791  :     S0--;

  0169d	8b 0d 00 00 00
	00		 mov	 ecx, DWORD PTR _atl__sp
  016a3	8b 51 fc	 mov	 edx, DWORD PTR [ecx-4]
  016a6	83 ea 01	 sub	 edx, 1
  016a9	a1 00 00 00 00	 mov	 eax, DWORD PTR _atl__sp
  016ae	89 50 fc	 mov	 DWORD PTR [eax-4], edx
$LN2@P_1minus:

; 792  : }

  016b1	5d		 pop	 ebp
  016b2	c3		 ret	 0
_P_1minus ENDP
; Function compile flags: /Odtp
_P_2minus PROC

; 795  : {

  016c0	55		 push	 ebp
  016c1	8b ec		 mov	 ebp, esp

; 796  :     Sl(1);

  016c3	a1 00 00 00 00	 mov	 eax, DWORD PTR _atl__sp
  016c8	2b 05 00 00 00
	00		 sub	 eax, DWORD PTR _atl__sk
  016ce	c1 f8 02	 sar	 eax, 2
  016d1	83 f8 01	 cmp	 eax, 1
  016d4	7d 07		 jge	 SHORT $LN1@P_2minus
  016d6	e8 00 00 00 00	 call	 _atl__Esu
  016db	eb 14		 jmp	 SHORT $LN2@P_2minus
$LN1@P_2minus:

; 797  :     S0 -= 2;

  016dd	8b 0d 00 00 00
	00		 mov	 ecx, DWORD PTR _atl__sp
  016e3	8b 51 fc	 mov	 edx, DWORD PTR [ecx-4]
  016e6	83 ea 02	 sub	 edx, 2
  016e9	a1 00 00 00 00	 mov	 eax, DWORD PTR _atl__sp
  016ee	89 50 fc	 mov	 DWORD PTR [eax-4], edx
$LN2@P_2minus:

; 798  : }

  016f1	5d		 pop	 ebp
  016f2	c3		 ret	 0
_P_2minus ENDP
; Function compile flags: /Odtp
_P_2times PROC

; 801  : {

  01700	55		 push	 ebp
  01701	8b ec		 mov	 ebp, esp

; 802  :     Sl(1);

  01703	a1 00 00 00 00	 mov	 eax, DWORD PTR _atl__sp
  01708	2b 05 00 00 00
	00		 sub	 eax, DWORD PTR _atl__sk
  0170e	c1 f8 02	 sar	 eax, 2
  01711	83 f8 01	 cmp	 eax, 1
  01714	7d 07		 jge	 SHORT $LN1@P_2times
  01716	e8 00 00 00 00	 call	 _atl__Esu
  0171b	eb 13		 jmp	 SHORT $LN2@P_2times
$LN1@P_2times:

; 803  :     S0 *= 2;

  0171d	8b 0d 00 00 00
	00		 mov	 ecx, DWORD PTR _atl__sp
  01723	8b 51 fc	 mov	 edx, DWORD PTR [ecx-4]
  01726	d1 e2		 shl	 edx, 1
  01728	a1 00 00 00 00	 mov	 eax, DWORD PTR _atl__sp
  0172d	89 50 fc	 mov	 DWORD PTR [eax-4], edx
$LN2@P_2times:

; 804  : }

  01730	5d		 pop	 ebp
  01731	c3		 ret	 0
_P_2times ENDP
; Function compile flags: /Odtp
_P_2div PROC

; 807  : {

  01740	55		 push	 ebp
  01741	8b ec		 mov	 ebp, esp

; 808  :     Sl(1);

  01743	a1 00 00 00 00	 mov	 eax, DWORD PTR _atl__sp
  01748	2b 05 00 00 00
	00		 sub	 eax, DWORD PTR _atl__sk
  0174e	c1 f8 02	 sar	 eax, 2
  01751	83 f8 01	 cmp	 eax, 1
  01754	7d 07		 jge	 SHORT $LN1@P_2div
  01756	e8 00 00 00 00	 call	 _atl__Esu
  0175b	eb 17		 jmp	 SHORT $LN2@P_2div
$LN1@P_2div:

; 809  :     S0 /= 2;

  0175d	8b 0d 00 00 00
	00		 mov	 ecx, DWORD PTR _atl__sp
  01763	8b 41 fc	 mov	 eax, DWORD PTR [ecx-4]
  01766	99		 cdq
  01767	2b c2		 sub	 eax, edx
  01769	d1 f8		 sar	 eax, 1
  0176b	8b 15 00 00 00
	00		 mov	 edx, DWORD PTR _atl__sp
  01771	89 42 fc	 mov	 DWORD PTR [edx-4], eax
$LN2@P_2div:

; 810  : }

  01774	5d		 pop	 ebp
  01775	c3		 ret	 0
_P_2div	ENDP
; Function compile flags: /Odtp
_P_0equal PROC

; 817  : {

  01780	55		 push	 ebp
  01781	8b ec		 mov	 ebp, esp

; 818  :     Sl(1);

  01783	a1 00 00 00 00	 mov	 eax, DWORD PTR _atl__sp
  01788	2b 05 00 00 00
	00		 sub	 eax, DWORD PTR _atl__sk
  0178e	c1 f8 02	 sar	 eax, 2
  01791	83 f8 01	 cmp	 eax, 1
  01794	7d 07		 jge	 SHORT $LN1@P_0equal
  01796	e8 00 00 00 00	 call	 _atl__Esu
  0179b	eb 1a		 jmp	 SHORT $LN2@P_0equal
$LN1@P_0equal:

; 819  :     S0 = (S0 == 0) ? Truth : Falsity;

  0179d	8b 0d 00 00 00
	00		 mov	 ecx, DWORD PTR _atl__sp
  017a3	8b 51 fc	 mov	 edx, DWORD PTR [ecx-4]
  017a6	f7 da		 neg	 edx
  017a8	1b d2		 sbb	 edx, edx
  017aa	f7 da		 neg	 edx
  017ac	83 ea 01	 sub	 edx, 1
  017af	a1 00 00 00 00	 mov	 eax, DWORD PTR _atl__sp
  017b4	89 50 fc	 mov	 DWORD PTR [eax-4], edx
$LN2@P_0equal:

; 820  : }

  017b7	5d		 pop	 ebp
  017b8	c3		 ret	 0
_P_0equal ENDP
; Function compile flags: /Odtp
_P_0notequal PROC

; 823  : {

  017c0	55		 push	 ebp
  017c1	8b ec		 mov	 ebp, esp

; 824  :     Sl(1);

  017c3	a1 00 00 00 00	 mov	 eax, DWORD PTR _atl__sp
  017c8	2b 05 00 00 00
	00		 sub	 eax, DWORD PTR _atl__sk
  017ce	c1 f8 02	 sar	 eax, 2
  017d1	83 f8 01	 cmp	 eax, 1
  017d4	7d 07		 jge	 SHORT $LN1@P_0notequa
  017d6	e8 00 00 00 00	 call	 _atl__Esu
  017db	eb 15		 jmp	 SHORT $LN2@P_0notequa
$LN1@P_0notequa:

; 825  :     S0 = (S0 != 0) ? Truth : Falsity;

  017dd	8b 0d 00 00 00
	00		 mov	 ecx, DWORD PTR _atl__sp
  017e3	8b 51 fc	 mov	 edx, DWORD PTR [ecx-4]
  017e6	f7 da		 neg	 edx
  017e8	1b d2		 sbb	 edx, edx
  017ea	a1 00 00 00 00	 mov	 eax, DWORD PTR _atl__sp
  017ef	89 50 fc	 mov	 DWORD PTR [eax-4], edx
$LN2@P_0notequa:

; 826  : }

  017f2	5d		 pop	 ebp
  017f3	c3		 ret	 0
_P_0notequal ENDP
; Function compile flags: /Odtp
_P_0gtr PROC

; 829  : {

  01800	55		 push	 ebp
  01801	8b ec		 mov	 ebp, esp

; 830  :     Sl(1);

  01803	a1 00 00 00 00	 mov	 eax, DWORD PTR _atl__sp
  01808	2b 05 00 00 00
	00		 sub	 eax, DWORD PTR _atl__sk
  0180e	c1 f8 02	 sar	 eax, 2
  01811	83 f8 01	 cmp	 eax, 1
  01814	7d 07		 jge	 SHORT $LN1@P_0gtr
  01816	e8 00 00 00 00	 call	 _atl__Esu
  0181b	eb 1a		 jmp	 SHORT $LN2@P_0gtr
$LN1@P_0gtr:

; 831  :     S0 = (S0 > 0) ? Truth : Falsity;

  0181d	8b 0d 00 00 00
	00		 mov	 ecx, DWORD PTR _atl__sp
  01823	33 d2		 xor	 edx, edx
  01825	83 79 fc 00	 cmp	 DWORD PTR [ecx-4], 0
  01829	0f 9e c2	 setle	 dl
  0182c	83 ea 01	 sub	 edx, 1
  0182f	a1 00 00 00 00	 mov	 eax, DWORD PTR _atl__sp
  01834	89 50 fc	 mov	 DWORD PTR [eax-4], edx
$LN2@P_0gtr:

; 832  : }

  01837	5d		 pop	 ebp
  01838	c3		 ret	 0
_P_0gtr	ENDP
; Function compile flags: /Odtp
_P_0lss PROC

; 835  : {

  01840	55		 push	 ebp
  01841	8b ec		 mov	 ebp, esp

; 836  :     Sl(1);

  01843	a1 00 00 00 00	 mov	 eax, DWORD PTR _atl__sp
  01848	2b 05 00 00 00
	00		 sub	 eax, DWORD PTR _atl__sk
  0184e	c1 f8 02	 sar	 eax, 2
  01851	83 f8 01	 cmp	 eax, 1
  01854	7d 07		 jge	 SHORT $LN1@P_0lss
  01856	e8 00 00 00 00	 call	 _atl__Esu
  0185b	eb 1a		 jmp	 SHORT $LN2@P_0lss
$LN1@P_0lss:

; 837  :     S0 = (S0 < 0) ? Truth : Falsity;

  0185d	8b 0d 00 00 00
	00		 mov	 ecx, DWORD PTR _atl__sp
  01863	33 d2		 xor	 edx, edx
  01865	83 79 fc 00	 cmp	 DWORD PTR [ecx-4], 0
  01869	0f 9d c2	 setge	 dl
  0186c	83 ea 01	 sub	 edx, 1
  0186f	a1 00 00 00 00	 mov	 eax, DWORD PTR _atl__sp
  01874	89 50 fc	 mov	 DWORD PTR [eax-4], edx
$LN2@P_0lss:

; 838  : }

  01877	5d		 pop	 ebp
  01878	c3		 ret	 0
_P_0lss	ENDP
_TEXT	ENDS
PUBLIC	_atl__Eso
; Function compile flags: /Odtp
_TEXT	SEGMENT
_P_here	PROC

; 845  : {

  01880	55		 push	 ebp
  01881	8b ec		 mov	 ebp, esp

; 846  :     So(1);

  01883	a1 00 00 00 00	 mov	 eax, DWORD PTR _atl__sp
  01888	83 c0 04	 add	 eax, 4
  0188b	3b 05 00 00 00
	00		 cmp	 eax, DWORD PTR _atl__sx
  01891	76 0f		 jbe	 SHORT $LN2@P_here
  01893	8b 0d 00 00 00
	00		 mov	 ecx, DWORD PTR _atl__sp
  01899	83 c1 04	 add	 ecx, 4
  0189c	89 0d 00 00 00
	00		 mov	 DWORD PTR _atl__sx, ecx
$LN2@P_here:
  018a2	8b 15 00 00 00
	00		 mov	 edx, DWORD PTR _atl__sp
  018a8	83 c2 04	 add	 edx, 4
  018ab	3b 15 00 00 00
	00		 cmp	 edx, DWORD PTR _atl__st
  018b1	76 07		 jbe	 SHORT $LN1@P_here
  018b3	e8 00 00 00 00	 call	 _atl__Eso
  018b8	eb 1c		 jmp	 SHORT $LN3@P_here
$LN1@P_here:

; 847  :     Push = (stackitem) hptr;

  018ba	a1 00 00 00 00	 mov	 eax, DWORD PTR _atl__sp
  018bf	8b 0d 00 00 00
	00		 mov	 ecx, DWORD PTR _atl__hp
  018c5	89 08		 mov	 DWORD PTR [eax], ecx
  018c7	8b 15 00 00 00
	00		 mov	 edx, DWORD PTR _atl__sp
  018cd	83 c2 04	 add	 edx, 4
  018d0	89 15 00 00 00
	00		 mov	 DWORD PTR _atl__sp, edx
$LN3@P_here:

; 848  : }

  018d6	5d		 pop	 ebp
  018d7	c3		 ret	 0
_P_here	ENDP
_TEXT	ENDS
PUBLIC	_atl__Ebp
; Function compile flags: /Odtp
_TEXT	SEGMENT
_P_bang	PROC

; 851  : {

  018e0	55		 push	 ebp
  018e1	8b ec		 mov	 ebp, esp

; 852  :     Sl(2);

  018e3	a1 00 00 00 00	 mov	 eax, DWORD PTR _atl__sp
  018e8	2b 05 00 00 00
	00		 sub	 eax, DWORD PTR _atl__sk
  018ee	c1 f8 02	 sar	 eax, 2
  018f1	83 f8 02	 cmp	 eax, 2
  018f4	7d 07		 jge	 SHORT $LN3@P_bang
  018f6	e8 00 00 00 00	 call	 _atl__Esu
  018fb	eb 49		 jmp	 SHORT $LN4@P_bang
$LN3@P_bang:

; 853  :     Hpc(S0);

  018fd	8b 0d 00 00 00
	00		 mov	 ecx, DWORD PTR _atl__sp
  01903	8b 51 fc	 mov	 edx, DWORD PTR [ecx-4]
  01906	3b 15 00 00 00
	00		 cmp	 edx, DWORD PTR _atl__hs
  0190c	72 10		 jb	 SHORT $LN1@P_bang
  0190e	a1 00 00 00 00	 mov	 eax, DWORD PTR _atl__sp
  01913	8b 48 fc	 mov	 ecx, DWORD PTR [eax-4]
  01916	3b 0d 00 00 00
	00		 cmp	 ecx, DWORD PTR _atl__ht
  0191c	72 07		 jb	 SHORT $LN2@P_bang
$LN1@P_bang:
  0191e	e8 00 00 00 00	 call	 _atl__Ebp
  01923	eb 21		 jmp	 SHORT $LN4@P_bang
$LN2@P_bang:

; 854  :     *((stackitem *) S0) = S1;

  01925	8b 15 00 00 00
	00		 mov	 edx, DWORD PTR _atl__sp
  0192b	8b 42 fc	 mov	 eax, DWORD PTR [edx-4]
  0192e	8b 0d 00 00 00
	00		 mov	 ecx, DWORD PTR _atl__sp
  01934	8b 51 f8	 mov	 edx, DWORD PTR [ecx-8]
  01937	89 10		 mov	 DWORD PTR [eax], edx

; 855  :     Pop2;

  01939	a1 00 00 00 00	 mov	 eax, DWORD PTR _atl__sp
  0193e	83 e8 08	 sub	 eax, 8
  01941	a3 00 00 00 00	 mov	 DWORD PTR _atl__sp, eax
$LN4@P_bang:

; 856  : }

  01946	5d		 pop	 ebp
  01947	c3		 ret	 0
_P_bang	ENDP
; Function compile flags: /Odtp
_P_at	PROC

; 859  : {

  01950	55		 push	 ebp
  01951	8b ec		 mov	 ebp, esp

; 860  :     Sl(1);

  01953	a1 00 00 00 00	 mov	 eax, DWORD PTR _atl__sp
  01958	2b 05 00 00 00
	00		 sub	 eax, DWORD PTR _atl__sk
  0195e	c1 f8 02	 sar	 eax, 2
  01961	83 f8 01	 cmp	 eax, 1
  01964	7d 07		 jge	 SHORT $LN3@P_at
  01966	e8 00 00 00 00	 call	 _atl__Esu
  0196b	eb 3c		 jmp	 SHORT $LN4@P_at
$LN3@P_at:

; 861  :     Hpc(S0);

  0196d	8b 0d 00 00 00
	00		 mov	 ecx, DWORD PTR _atl__sp
  01973	8b 51 fc	 mov	 edx, DWORD PTR [ecx-4]
  01976	3b 15 00 00 00
	00		 cmp	 edx, DWORD PTR _atl__hs
  0197c	72 10		 jb	 SHORT $LN1@P_at
  0197e	a1 00 00 00 00	 mov	 eax, DWORD PTR _atl__sp
  01983	8b 48 fc	 mov	 ecx, DWORD PTR [eax-4]
  01986	3b 0d 00 00 00
	00		 cmp	 ecx, DWORD PTR _atl__ht
  0198c	72 07		 jb	 SHORT $LN2@P_at
$LN1@P_at:
  0198e	e8 00 00 00 00	 call	 _atl__Ebp
  01993	eb 14		 jmp	 SHORT $LN4@P_at
$LN2@P_at:

; 862  :     S0 = *((stackitem *) S0);

  01995	8b 15 00 00 00
	00		 mov	 edx, DWORD PTR _atl__sp
  0199b	8b 42 fc	 mov	 eax, DWORD PTR [edx-4]
  0199e	8b 0d 00 00 00
	00		 mov	 ecx, DWORD PTR _atl__sp
  019a4	8b 10		 mov	 edx, DWORD PTR [eax]
  019a6	89 51 fc	 mov	 DWORD PTR [ecx-4], edx
$LN4@P_at:

; 863  : }

  019a9	5d		 pop	 ebp
  019aa	c3		 ret	 0
_P_at	ENDP
; Function compile flags: /Odtp
_P_plusbang PROC

; 866  : {

  019b0	55		 push	 ebp
  019b1	8b ec		 mov	 ebp, esp

; 867  :     Sl(2);

  019b3	a1 00 00 00 00	 mov	 eax, DWORD PTR _atl__sp
  019b8	2b 05 00 00 00
	00		 sub	 eax, DWORD PTR _atl__sk
  019be	c1 f8 02	 sar	 eax, 2
  019c1	83 f8 02	 cmp	 eax, 2
  019c4	7d 07		 jge	 SHORT $LN3@P_plusbang
  019c6	e8 00 00 00 00	 call	 _atl__Esu
  019cb	eb 53		 jmp	 SHORT $LN4@P_plusbang
$LN3@P_plusbang:

; 868  :     Hpc(S0);

  019cd	8b 0d 00 00 00
	00		 mov	 ecx, DWORD PTR _atl__sp
  019d3	8b 51 fc	 mov	 edx, DWORD PTR [ecx-4]
  019d6	3b 15 00 00 00
	00		 cmp	 edx, DWORD PTR _atl__hs
  019dc	72 10		 jb	 SHORT $LN1@P_plusbang
  019de	a1 00 00 00 00	 mov	 eax, DWORD PTR _atl__sp
  019e3	8b 48 fc	 mov	 ecx, DWORD PTR [eax-4]
  019e6	3b 0d 00 00 00
	00		 cmp	 ecx, DWORD PTR _atl__ht
  019ec	72 07		 jb	 SHORT $LN2@P_plusbang
$LN1@P_plusbang:
  019ee	e8 00 00 00 00	 call	 _atl__Ebp
  019f3	eb 2b		 jmp	 SHORT $LN4@P_plusbang
$LN2@P_plusbang:

; 869  :     *((stackitem *) S0) += S1;

  019f5	8b 15 00 00 00
	00		 mov	 edx, DWORD PTR _atl__sp
  019fb	8b 42 fc	 mov	 eax, DWORD PTR [edx-4]
  019fe	8b 08		 mov	 ecx, DWORD PTR [eax]
  01a00	8b 15 00 00 00
	00		 mov	 edx, DWORD PTR _atl__sp
  01a06	03 4a f8	 add	 ecx, DWORD PTR [edx-8]
  01a09	a1 00 00 00 00	 mov	 eax, DWORD PTR _atl__sp
  01a0e	8b 50 fc	 mov	 edx, DWORD PTR [eax-4]
  01a11	89 0a		 mov	 DWORD PTR [edx], ecx

; 870  :     Pop2;

  01a13	a1 00 00 00 00	 mov	 eax, DWORD PTR _atl__sp
  01a18	83 e8 08	 sub	 eax, 8
  01a1b	a3 00 00 00 00	 mov	 DWORD PTR _atl__sp, eax
$LN4@P_plusbang:

; 871  : }

  01a20	5d		 pop	 ebp
  01a21	c3		 ret	 0
_P_plusbang ENDP
_TEXT	ENDS
PUBLIC	_atl__Eho
; Function compile flags: /Odtp
_TEXT	SEGMENT
_n$ = -4						; size = 4
_P_allot PROC

; 874  : {

  01a30	55		 push	 ebp
  01a31	8b ec		 mov	 ebp, esp
  01a33	51		 push	 ecx

; 875  :     stackitem n;
; 876  : 
; 877  :     Sl(1);

  01a34	a1 00 00 00 00	 mov	 eax, DWORD PTR _atl__sp
  01a39	2b 05 00 00 00
	00		 sub	 eax, DWORD PTR _atl__sk
  01a3f	c1 f8 02	 sar	 eax, 2
  01a42	83 f8 01	 cmp	 eax, 1
  01a45	7d 07		 jge	 SHORT $LN3@P_allot
  01a47	e8 00 00 00 00	 call	 _atl__Esu
  01a4c	eb 70		 jmp	 SHORT $LN4@P_allot
$LN3@P_allot:

; 878  :     n = (S0 + (sizeof(stackitem) - 1)) / sizeof(stackitem);

  01a4e	8b 0d 00 00 00
	00		 mov	 ecx, DWORD PTR _atl__sp
  01a54	8b 51 fc	 mov	 edx, DWORD PTR [ecx-4]
  01a57	83 c2 03	 add	 edx, 3
  01a5a	c1 ea 02	 shr	 edx, 2
  01a5d	89 55 fc	 mov	 DWORD PTR _n$[ebp], edx

; 879  :     Pop;

  01a60	a1 00 00 00 00	 mov	 eax, DWORD PTR _atl__sp
  01a65	83 e8 04	 sub	 eax, 4
  01a68	a3 00 00 00 00	 mov	 DWORD PTR _atl__sp, eax

; 880  :     Ho(n);

  01a6d	8b 4d fc	 mov	 ecx, DWORD PTR _n$[ebp]
  01a70	8b 15 00 00 00
	00		 mov	 edx, DWORD PTR _atl__hp
  01a76	8d 04 8a	 lea	 eax, DWORD PTR [edx+ecx*4]
  01a79	3b 05 00 00 00
	00		 cmp	 eax, DWORD PTR _atl__hx
  01a7f	76 11		 jbe	 SHORT $LN2@P_allot
  01a81	8b 4d fc	 mov	 ecx, DWORD PTR _n$[ebp]
  01a84	8b 15 00 00 00
	00		 mov	 edx, DWORD PTR _atl__hp
  01a8a	8d 04 8a	 lea	 eax, DWORD PTR [edx+ecx*4]
  01a8d	a3 00 00 00 00	 mov	 DWORD PTR _atl__hx, eax
$LN2@P_allot:
  01a92	8b 4d fc	 mov	 ecx, DWORD PTR _n$[ebp]
  01a95	8b 15 00 00 00
	00		 mov	 edx, DWORD PTR _atl__hp
  01a9b	8d 04 8a	 lea	 eax, DWORD PTR [edx+ecx*4]
  01a9e	3b 05 00 00 00
	00		 cmp	 eax, DWORD PTR _atl__ht
  01aa4	76 07		 jbe	 SHORT $LN1@P_allot
  01aa6	e8 00 00 00 00	 call	 _atl__Eho
  01aab	eb 11		 jmp	 SHORT $LN4@P_allot
$LN1@P_allot:

; 881  :     hptr += n;

  01aad	8b 4d fc	 mov	 ecx, DWORD PTR _n$[ebp]
  01ab0	8b 15 00 00 00
	00		 mov	 edx, DWORD PTR _atl__hp
  01ab6	8d 04 8a	 lea	 eax, DWORD PTR [edx+ecx*4]
  01ab9	a3 00 00 00 00	 mov	 DWORD PTR _atl__hp, eax
$LN4@P_allot:

; 882  : }

  01abe	8b e5		 mov	 esp, ebp
  01ac0	5d		 pop	 ebp
  01ac1	c3		 ret	 0
_P_allot ENDP
; Function compile flags: /Odtp
_P_comma PROC

; 885  : {

  01ad0	55		 push	 ebp
  01ad1	8b ec		 mov	 ebp, esp

; 886  :     Sl(1);

  01ad3	a1 00 00 00 00	 mov	 eax, DWORD PTR _atl__sp
  01ad8	2b 05 00 00 00
	00		 sub	 eax, DWORD PTR _atl__sk
  01ade	c1 f8 02	 sar	 eax, 2
  01ae1	83 f8 01	 cmp	 eax, 1
  01ae4	7d 07		 jge	 SHORT $LN3@P_comma
  01ae6	e8 00 00 00 00	 call	 _atl__Esu
  01aeb	eb 66		 jmp	 SHORT $LN4@P_comma
$LN3@P_comma:

; 887  :     Ho(1);

  01aed	8b 0d 00 00 00
	00		 mov	 ecx, DWORD PTR _atl__hp
  01af3	83 c1 04	 add	 ecx, 4
  01af6	3b 0d 00 00 00
	00		 cmp	 ecx, DWORD PTR _atl__hx
  01afc	76 0f		 jbe	 SHORT $LN2@P_comma
  01afe	8b 15 00 00 00
	00		 mov	 edx, DWORD PTR _atl__hp
  01b04	83 c2 04	 add	 edx, 4
  01b07	89 15 00 00 00
	00		 mov	 DWORD PTR _atl__hx, edx
$LN2@P_comma:
  01b0d	a1 00 00 00 00	 mov	 eax, DWORD PTR _atl__hp
  01b12	83 c0 04	 add	 eax, 4
  01b15	3b 05 00 00 00
	00		 cmp	 eax, DWORD PTR _atl__ht
  01b1b	76 07		 jbe	 SHORT $LN1@P_comma
  01b1d	e8 00 00 00 00	 call	 _atl__Eho
  01b22	eb 2f		 jmp	 SHORT $LN4@P_comma
$LN1@P_comma:

; 888  :     Hstore = S0;

  01b24	8b 0d 00 00 00
	00		 mov	 ecx, DWORD PTR _atl__hp
  01b2a	8b 15 00 00 00
	00		 mov	 edx, DWORD PTR _atl__sp
  01b30	8b 42 fc	 mov	 eax, DWORD PTR [edx-4]
  01b33	89 01		 mov	 DWORD PTR [ecx], eax
  01b35	8b 0d 00 00 00
	00		 mov	 ecx, DWORD PTR _atl__hp
  01b3b	83 c1 04	 add	 ecx, 4
  01b3e	89 0d 00 00 00
	00		 mov	 DWORD PTR _atl__hp, ecx

; 889  :     Pop;

  01b44	8b 15 00 00 00
	00		 mov	 edx, DWORD PTR _atl__sp
  01b4a	83 ea 04	 sub	 edx, 4
  01b4d	89 15 00 00 00
	00		 mov	 DWORD PTR _atl__sp, edx
$LN4@P_comma:

; 890  : }

  01b53	5d		 pop	 ebp
  01b54	c3		 ret	 0
_P_comma ENDP
; Function compile flags: /Odtp
_P_cbang PROC

; 893  : {

  01b60	55		 push	 ebp
  01b61	8b ec		 mov	 ebp, esp

; 894  :     Sl(2);

  01b63	a1 00 00 00 00	 mov	 eax, DWORD PTR _atl__sp
  01b68	2b 05 00 00 00
	00		 sub	 eax, DWORD PTR _atl__sk
  01b6e	c1 f8 02	 sar	 eax, 2
  01b71	83 f8 02	 cmp	 eax, 2
  01b74	7d 07		 jge	 SHORT $LN3@P_cbang
  01b76	e8 00 00 00 00	 call	 _atl__Esu
  01b7b	eb 49		 jmp	 SHORT $LN4@P_cbang
$LN3@P_cbang:

; 895  :     Hpc(S0);

  01b7d	8b 0d 00 00 00
	00		 mov	 ecx, DWORD PTR _atl__sp
  01b83	8b 51 fc	 mov	 edx, DWORD PTR [ecx-4]
  01b86	3b 15 00 00 00
	00		 cmp	 edx, DWORD PTR _atl__hs
  01b8c	72 10		 jb	 SHORT $LN1@P_cbang
  01b8e	a1 00 00 00 00	 mov	 eax, DWORD PTR _atl__sp
  01b93	8b 48 fc	 mov	 ecx, DWORD PTR [eax-4]
  01b96	3b 0d 00 00 00
	00		 cmp	 ecx, DWORD PTR _atl__ht
  01b9c	72 07		 jb	 SHORT $LN2@P_cbang
$LN1@P_cbang:
  01b9e	e8 00 00 00 00	 call	 _atl__Ebp
  01ba3	eb 21		 jmp	 SHORT $LN4@P_cbang
$LN2@P_cbang:

; 896  :     *((unsigned char *) S0) = S1;

  01ba5	8b 15 00 00 00
	00		 mov	 edx, DWORD PTR _atl__sp
  01bab	8b 42 fc	 mov	 eax, DWORD PTR [edx-4]
  01bae	8b 0d 00 00 00
	00		 mov	 ecx, DWORD PTR _atl__sp
  01bb4	8a 51 f8	 mov	 dl, BYTE PTR [ecx-8]
  01bb7	88 10		 mov	 BYTE PTR [eax], dl

; 897  :     Pop2;

  01bb9	a1 00 00 00 00	 mov	 eax, DWORD PTR _atl__sp
  01bbe	83 e8 08	 sub	 eax, 8
  01bc1	a3 00 00 00 00	 mov	 DWORD PTR _atl__sp, eax
$LN4@P_cbang:

; 898  : }

  01bc6	5d		 pop	 ebp
  01bc7	c3		 ret	 0
_P_cbang ENDP
; Function compile flags: /Odtp
_P_cat	PROC

; 901  : {

  01bd0	55		 push	 ebp
  01bd1	8b ec		 mov	 ebp, esp

; 902  :     Sl(1);

  01bd3	a1 00 00 00 00	 mov	 eax, DWORD PTR _atl__sp
  01bd8	2b 05 00 00 00
	00		 sub	 eax, DWORD PTR _atl__sk
  01bde	c1 f8 02	 sar	 eax, 2
  01be1	83 f8 01	 cmp	 eax, 1
  01be4	7d 07		 jge	 SHORT $LN3@P_cat
  01be6	e8 00 00 00 00	 call	 _atl__Esu
  01beb	eb 3d		 jmp	 SHORT $LN4@P_cat
$LN3@P_cat:

; 903  :     Hpc(S0);

  01bed	8b 0d 00 00 00
	00		 mov	 ecx, DWORD PTR _atl__sp
  01bf3	8b 51 fc	 mov	 edx, DWORD PTR [ecx-4]
  01bf6	3b 15 00 00 00
	00		 cmp	 edx, DWORD PTR _atl__hs
  01bfc	72 10		 jb	 SHORT $LN1@P_cat
  01bfe	a1 00 00 00 00	 mov	 eax, DWORD PTR _atl__sp
  01c03	8b 48 fc	 mov	 ecx, DWORD PTR [eax-4]
  01c06	3b 0d 00 00 00
	00		 cmp	 ecx, DWORD PTR _atl__ht
  01c0c	72 07		 jb	 SHORT $LN2@P_cat
$LN1@P_cat:
  01c0e	e8 00 00 00 00	 call	 _atl__Ebp
  01c13	eb 15		 jmp	 SHORT $LN4@P_cat
$LN2@P_cat:

; 904  :     S0 = *((unsigned char *) S0);

  01c15	8b 15 00 00 00
	00		 mov	 edx, DWORD PTR _atl__sp
  01c1b	8b 42 fc	 mov	 eax, DWORD PTR [edx-4]
  01c1e	0f b6 08	 movzx	 ecx, BYTE PTR [eax]
  01c21	8b 15 00 00 00
	00		 mov	 edx, DWORD PTR _atl__sp
  01c27	89 4a fc	 mov	 DWORD PTR [edx-4], ecx
$LN4@P_cat:

; 905  : }

  01c2a	5d		 pop	 ebp
  01c2b	c3		 ret	 0
_P_cat	ENDP
; Function compile flags: /Odtp
_chp$ = -4						; size = 4
_P_ccomma PROC

; 908  : {

  01c30	55		 push	 ebp
  01c31	8b ec		 mov	 ebp, esp
  01c33	51		 push	 ecx

; 909  :     unsigned char *chp;
; 910  : 
; 911  :     Sl(1);

  01c34	a1 00 00 00 00	 mov	 eax, DWORD PTR _atl__sp
  01c39	2b 05 00 00 00
	00		 sub	 eax, DWORD PTR _atl__sk
  01c3f	c1 f8 02	 sar	 eax, 2
  01c42	83 f8 01	 cmp	 eax, 1
  01c45	7d 07		 jge	 SHORT $LN3@P_ccomma
  01c47	e8 00 00 00 00	 call	 _atl__Esu
  01c4c	eb 6d		 jmp	 SHORT $LN4@P_ccomma
$LN3@P_ccomma:

; 912  :     Ho(1);

  01c4e	8b 0d 00 00 00
	00		 mov	 ecx, DWORD PTR _atl__hp
  01c54	83 c1 04	 add	 ecx, 4
  01c57	3b 0d 00 00 00
	00		 cmp	 ecx, DWORD PTR _atl__hx
  01c5d	76 0f		 jbe	 SHORT $LN2@P_ccomma
  01c5f	8b 15 00 00 00
	00		 mov	 edx, DWORD PTR _atl__hp
  01c65	83 c2 04	 add	 edx, 4
  01c68	89 15 00 00 00
	00		 mov	 DWORD PTR _atl__hx, edx
$LN2@P_ccomma:
  01c6e	a1 00 00 00 00	 mov	 eax, DWORD PTR _atl__hp
  01c73	83 c0 04	 add	 eax, 4
  01c76	3b 05 00 00 00
	00		 cmp	 eax, DWORD PTR _atl__ht
  01c7c	76 07		 jbe	 SHORT $LN1@P_ccomma
  01c7e	e8 00 00 00 00	 call	 _atl__Eho
  01c83	eb 36		 jmp	 SHORT $LN4@P_ccomma
$LN1@P_ccomma:

; 913  :     chp = ((unsigned char *) hptr);

  01c85	8b 0d 00 00 00
	00		 mov	 ecx, DWORD PTR _atl__hp
  01c8b	89 4d fc	 mov	 DWORD PTR _chp$[ebp], ecx

; 914  :     *chp++ = S0;

  01c8e	8b 55 fc	 mov	 edx, DWORD PTR _chp$[ebp]
  01c91	a1 00 00 00 00	 mov	 eax, DWORD PTR _atl__sp
  01c96	8a 48 fc	 mov	 cl, BYTE PTR [eax-4]
  01c99	88 0a		 mov	 BYTE PTR [edx], cl
  01c9b	8b 55 fc	 mov	 edx, DWORD PTR _chp$[ebp]
  01c9e	83 c2 01	 add	 edx, 1
  01ca1	89 55 fc	 mov	 DWORD PTR _chp$[ebp], edx

; 915  :     hptr = (stackitem *) chp;

  01ca4	8b 45 fc	 mov	 eax, DWORD PTR _chp$[ebp]
  01ca7	a3 00 00 00 00	 mov	 DWORD PTR _atl__hp, eax

; 916  :     Pop;

  01cac	8b 0d 00 00 00
	00		 mov	 ecx, DWORD PTR _atl__sp
  01cb2	83 e9 04	 sub	 ecx, 4
  01cb5	89 0d 00 00 00
	00		 mov	 DWORD PTR _atl__sp, ecx
$LN4@P_ccomma:

; 917  : }

  01cbb	8b e5		 mov	 esp, ebp
  01cbd	5d		 pop	 ebp
  01cbe	c3		 ret	 0
_P_ccomma ENDP
; Function compile flags: /Odtp
_chp$83214 = -8					; size = 4
_n$ = -4						; size = 4
_P_cequal PROC

; 920  : {				      /* a series of bytes. */

  01cc0	55		 push	 ebp
  01cc1	8b ec		 mov	 ebp, esp
  01cc3	83 ec 08	 sub	 esp, 8

; 921  :     stackitem n = (((stackitem) hptr) - ((stackitem) heap)) %
; 922  : 			(sizeof(stackitem));

  01cc6	a1 00 00 00 00	 mov	 eax, DWORD PTR _atl__hp
  01ccb	2b 05 00 00 00
	00		 sub	 eax, DWORD PTR _atl__hb
  01cd1	33 d2		 xor	 edx, edx
  01cd3	b9 04 00 00 00	 mov	 ecx, 4
  01cd8	f7 f1		 div	 ecx
  01cda	89 55 fc	 mov	 DWORD PTR _n$[ebp], edx

; 923  : 
; 924  :     if (n != 0) {

  01cdd	83 7d fc 00	 cmp	 DWORD PTR _n$[ebp], 0
  01ce1	74 20		 je	 SHORT $LN2@P_cequal

; 925  : 	char *chp = ((char *) hptr);

  01ce3	8b 15 00 00 00
	00		 mov	 edx, DWORD PTR _atl__hp
  01ce9	89 55 f8	 mov	 DWORD PTR _chp$83214[ebp], edx

; 926  : 
; 927  : 	chp += sizeof(stackitem) - n;

  01cec	b8 04 00 00 00	 mov	 eax, 4
  01cf1	2b 45 fc	 sub	 eax, DWORD PTR _n$[ebp]
  01cf4	03 45 f8	 add	 eax, DWORD PTR _chp$83214[ebp]
  01cf7	89 45 f8	 mov	 DWORD PTR _chp$83214[ebp], eax

; 928  : 	hptr = ((stackitem *) chp);

  01cfa	8b 4d f8	 mov	 ecx, DWORD PTR _chp$83214[ebp]
  01cfd	89 0d 00 00 00
	00		 mov	 DWORD PTR _atl__hp, ecx
$LN2@P_cequal:

; 929  :     }
; 930  : }

  01d03	8b e5		 mov	 esp, ebp
  01d05	5d		 pop	 ebp
  01d06	c3		 ret	 0
_P_cequal ENDP
; Function compile flags: /Odtp
_atl__Pcr PROC

; 941  : {

  01d10	55		 push	 ebp
  01d11	8b ec		 mov	 ebp, esp

; 942  :     defpend = True;		      /* Set definition pending */

  01d13	c7 05 00 00 00
	00 01 00 00 00	 mov	 DWORD PTR _defpend, 1

; 943  :     Ho(Dictwordl);

  01d1d	a1 00 00 00 00	 mov	 eax, DWORD PTR _atl__hp
  01d22	83 c0 0c	 add	 eax, 12			; 0000000cH
  01d25	3b 05 00 00 00
	00		 cmp	 eax, DWORD PTR _atl__hx
  01d2b	76 0f		 jbe	 SHORT $LN2@atl__Pcr
  01d2d	8b 0d 00 00 00
	00		 mov	 ecx, DWORD PTR _atl__hp
  01d33	83 c1 0c	 add	 ecx, 12			; 0000000cH
  01d36	89 0d 00 00 00
	00		 mov	 DWORD PTR _atl__hx, ecx
$LN2@atl__Pcr:
  01d3c	8b 15 00 00 00
	00		 mov	 edx, DWORD PTR _atl__hp
  01d42	83 c2 0c	 add	 edx, 12			; 0000000cH
  01d45	3b 15 00 00 00
	00		 cmp	 edx, DWORD PTR _atl__ht
  01d4b	76 07		 jbe	 SHORT $LN1@atl__Pcr
  01d4d	e8 00 00 00 00	 call	 _atl__Eho
  01d52	eb 31		 jmp	 SHORT $LN3@atl__Pcr
$LN1@atl__Pcr:

; 944  :     createword = (dictword *) hptr;   /* Develop address of word */

  01d54	a1 00 00 00 00	 mov	 eax, DWORD PTR _atl__hp
  01d59	a3 00 00 00 00	 mov	 DWORD PTR _atl__wd, eax

; 945  :     createword->wname = NULL;	      /* Clear pointer to name string */

  01d5e	8b 0d 00 00 00
	00		 mov	 ecx, DWORD PTR _atl__wd
  01d64	c7 41 04 00 00
	00 00		 mov	 DWORD PTR [ecx+4], 0

; 946  :     createword->wcode = P_var;	      /* Store default code */

  01d6b	8b 15 00 00 00
	00		 mov	 edx, DWORD PTR _atl__wd
  01d71	c7 42 08 00 00
	00 00		 mov	 DWORD PTR [edx+8], OFFSET _P_var

; 947  :     hptr += Dictwordl;		      /* Allocate heap space for word */

  01d78	a1 00 00 00 00	 mov	 eax, DWORD PTR _atl__hp
  01d7d	83 c0 0c	 add	 eax, 12			; 0000000cH
  01d80	a3 00 00 00 00	 mov	 DWORD PTR _atl__hp, eax
$LN3@atl__Pcr:

; 948  : }

  01d85	5d		 pop	 ebp
  01d86	c3		 ret	 0
_atl__Pcr ENDP
; Function compile flags: /Odtp
_P_var	PROC

; 935  : {

  01d90	55		 push	 ebp
  01d91	8b ec		 mov	 ebp, esp

; 936  :     So(1);

  01d93	a1 00 00 00 00	 mov	 eax, DWORD PTR _atl__sp
  01d98	83 c0 04	 add	 eax, 4
  01d9b	3b 05 00 00 00
	00		 cmp	 eax, DWORD PTR _atl__sx
  01da1	76 0f		 jbe	 SHORT $LN2@P_var
  01da3	8b 0d 00 00 00
	00		 mov	 ecx, DWORD PTR _atl__sp
  01da9	83 c1 04	 add	 ecx, 4
  01dac	89 0d 00 00 00
	00		 mov	 DWORD PTR _atl__sx, ecx
$LN2@P_var:
  01db2	8b 15 00 00 00
	00		 mov	 edx, DWORD PTR _atl__sp
  01db8	83 c2 04	 add	 edx, 4
  01dbb	3b 15 00 00 00
	00		 cmp	 edx, DWORD PTR _atl__st
  01dc1	76 07		 jbe	 SHORT $LN1@P_var
  01dc3	e8 00 00 00 00	 call	 _atl__Eso
  01dc8	eb 1f		 jmp	 SHORT $LN3@P_var
$LN1@P_var:

; 937  :     Push = (stackitem) (((stackitem *) curword) + Dictwordl);

  01dca	a1 00 00 00 00	 mov	 eax, DWORD PTR _atl__cw
  01dcf	83 c0 0c	 add	 eax, 12			; 0000000cH
  01dd2	8b 0d 00 00 00
	00		 mov	 ecx, DWORD PTR _atl__sp
  01dd8	89 01		 mov	 DWORD PTR [ecx], eax
  01dda	8b 15 00 00 00
	00		 mov	 edx, DWORD PTR _atl__sp
  01de0	83 c2 04	 add	 edx, 4
  01de3	89 15 00 00 00
	00		 mov	 DWORD PTR _atl__sp, edx
$LN3@P_var:

; 938  : }

  01de9	5d		 pop	 ebp
  01dea	c3		 ret	 0
_P_var	ENDP
; Function compile flags: /Odtp
_P_forget PROC

; 951  : {

  01df0	55		 push	 ebp
  01df1	8b ec		 mov	 ebp, esp

; 952  :     forgetpend = True;		      /* Mark forget pending */

  01df3	c7 05 00 00 00
	00 01 00 00 00	 mov	 DWORD PTR _forgetpend, 1

; 953  : }

  01dfd	5d		 pop	 ebp
  01dfe	c3		 ret	 0
_P_forget ENDP
; Function compile flags: /Odtp
_P_variable PROC

; 956  : {

  01e00	55		 push	 ebp
  01e01	8b ec		 mov	 ebp, esp

; 957  :     P_create(); 		      /* Create dictionary item */

  01e03	e8 00 00 00 00	 call	 _atl__Pcr

; 958  :     Ho(1);

  01e08	a1 00 00 00 00	 mov	 eax, DWORD PTR _atl__hp
  01e0d	83 c0 04	 add	 eax, 4
  01e10	3b 05 00 00 00
	00		 cmp	 eax, DWORD PTR _atl__hx
  01e16	76 0f		 jbe	 SHORT $LN2@P_variable
  01e18	8b 0d 00 00 00
	00		 mov	 ecx, DWORD PTR _atl__hp
  01e1e	83 c1 04	 add	 ecx, 4
  01e21	89 0d 00 00 00
	00		 mov	 DWORD PTR _atl__hx, ecx
$LN2@P_variable:
  01e27	8b 15 00 00 00
	00		 mov	 edx, DWORD PTR _atl__hp
  01e2d	83 c2 04	 add	 edx, 4
  01e30	3b 15 00 00 00
	00		 cmp	 edx, DWORD PTR _atl__ht
  01e36	76 07		 jbe	 SHORT $LN1@P_variable
  01e38	e8 00 00 00 00	 call	 _atl__Eho
  01e3d	eb 1a		 jmp	 SHORT $LN3@P_variable
$LN1@P_variable:

; 959  :     Hstore = 0; 		      /* Initial value = 0 */

  01e3f	a1 00 00 00 00	 mov	 eax, DWORD PTR _atl__hp
  01e44	c7 00 00 00 00
	00		 mov	 DWORD PTR [eax], 0
  01e4a	8b 0d 00 00 00
	00		 mov	 ecx, DWORD PTR _atl__hp
  01e50	83 c1 04	 add	 ecx, 4
  01e53	89 0d 00 00 00
	00		 mov	 DWORD PTR _atl__hp, ecx
$LN3@P_variable:

; 960  : }

  01e59	5d		 pop	 ebp
  01e5a	c3		 ret	 0
_P_variable ENDP
; Function compile flags: /Odtp
_P_constant PROC

; 969  : {

  01e60	55		 push	 ebp
  01e61	8b ec		 mov	 ebp, esp

; 970  :     Sl(1);

  01e63	a1 00 00 00 00	 mov	 eax, DWORD PTR _atl__sp
  01e68	2b 05 00 00 00
	00		 sub	 eax, DWORD PTR _atl__sk
  01e6e	c1 f8 02	 sar	 eax, 2
  01e71	83 f8 01	 cmp	 eax, 1
  01e74	7d 07		 jge	 SHORT $LN3@P_constant
  01e76	e8 00 00 00 00	 call	 _atl__Esu
  01e7b	eb 74		 jmp	 SHORT $LN4@P_constant
$LN3@P_constant:

; 971  :     P_create(); 		      /* Create dictionary item */

  01e7d	e8 00 00 00 00	 call	 _atl__Pcr

; 972  :     createword->wcode = P_con;	      /* Set code to constant push */

  01e82	8b 0d 00 00 00
	00		 mov	 ecx, DWORD PTR _atl__wd
  01e88	c7 41 08 00 00
	00 00		 mov	 DWORD PTR [ecx+8], OFFSET _P_con

; 973  :     Ho(1);

  01e8f	8b 15 00 00 00
	00		 mov	 edx, DWORD PTR _atl__hp
  01e95	83 c2 04	 add	 edx, 4
  01e98	3b 15 00 00 00
	00		 cmp	 edx, DWORD PTR _atl__hx
  01e9e	76 0d		 jbe	 SHORT $LN2@P_constant
  01ea0	a1 00 00 00 00	 mov	 eax, DWORD PTR _atl__hp
  01ea5	83 c0 04	 add	 eax, 4
  01ea8	a3 00 00 00 00	 mov	 DWORD PTR _atl__hx, eax
$LN2@P_constant:
  01ead	8b 0d 00 00 00
	00		 mov	 ecx, DWORD PTR _atl__hp
  01eb3	83 c1 04	 add	 ecx, 4
  01eb6	3b 0d 00 00 00
	00		 cmp	 ecx, DWORD PTR _atl__ht
  01ebc	76 07		 jbe	 SHORT $LN1@P_constant
  01ebe	e8 00 00 00 00	 call	 _atl__Eho
  01ec3	eb 2c		 jmp	 SHORT $LN4@P_constant
$LN1@P_constant:

; 974  :     Hstore = S0;		      /* Store constant value in body */

  01ec5	8b 15 00 00 00
	00		 mov	 edx, DWORD PTR _atl__hp
  01ecb	a1 00 00 00 00	 mov	 eax, DWORD PTR _atl__sp
  01ed0	8b 48 fc	 mov	 ecx, DWORD PTR [eax-4]
  01ed3	89 0a		 mov	 DWORD PTR [edx], ecx
  01ed5	8b 15 00 00 00
	00		 mov	 edx, DWORD PTR _atl__hp
  01edb	83 c2 04	 add	 edx, 4
  01ede	89 15 00 00 00
	00		 mov	 DWORD PTR _atl__hp, edx

; 975  :     Pop;

  01ee4	a1 00 00 00 00	 mov	 eax, DWORD PTR _atl__sp
  01ee9	83 e8 04	 sub	 eax, 4
  01eec	a3 00 00 00 00	 mov	 DWORD PTR _atl__sp, eax
$LN4@P_constant:

; 976  : }

  01ef1	5d		 pop	 ebp
  01ef2	c3		 ret	 0
_P_constant ENDP
; Function compile flags: /Odtp
_P_con	PROC

; 963  : {

  01f00	55		 push	 ebp
  01f01	8b ec		 mov	 ebp, esp

; 964  :     So(1);

  01f03	a1 00 00 00 00	 mov	 eax, DWORD PTR _atl__sp
  01f08	83 c0 04	 add	 eax, 4
  01f0b	3b 05 00 00 00
	00		 cmp	 eax, DWORD PTR _atl__sx
  01f11	76 0f		 jbe	 SHORT $LN2@P_con
  01f13	8b 0d 00 00 00
	00		 mov	 ecx, DWORD PTR _atl__sp
  01f19	83 c1 04	 add	 ecx, 4
  01f1c	89 0d 00 00 00
	00		 mov	 DWORD PTR _atl__sx, ecx
$LN2@P_con:
  01f22	8b 15 00 00 00
	00		 mov	 edx, DWORD PTR _atl__sp
  01f28	83 c2 04	 add	 edx, 4
  01f2b	3b 15 00 00 00
	00		 cmp	 edx, DWORD PTR _atl__st
  01f31	76 07		 jbe	 SHORT $LN1@P_con
  01f33	e8 00 00 00 00	 call	 _atl__Eso
  01f38	eb 1d		 jmp	 SHORT $LN3@P_con
$LN1@P_con:

; 965  :     Push = *(((stackitem *) curword) + Dictwordl);

  01f3a	a1 00 00 00 00	 mov	 eax, DWORD PTR _atl__sp
  01f3f	8b 0d 00 00 00
	00		 mov	 ecx, DWORD PTR _atl__cw
  01f45	8b 51 0c	 mov	 edx, DWORD PTR [ecx+12]
  01f48	89 10		 mov	 DWORD PTR [eax], edx
  01f4a	a1 00 00 00 00	 mov	 eax, DWORD PTR _atl__sp
  01f4f	83 c0 04	 add	 eax, 4
  01f52	a3 00 00 00 00	 mov	 DWORD PTR _atl__sp, eax
$LN3@P_con:

; 966  : }

  01f57	5d		 pop	 ebp
  01f58	c3		 ret	 0
_P_con	ENDP
; Function compile flags: /Odtp
_isp$ = -16						; size = 4
_asize$ = -12						; size = 4
_nsubs$ = -8						; size = 4
_i$ = -4						; size = 4
_P_array PROC

; 1016 : {				      /* sub1 sub2 ... subn n esize -- array */

  01f60	55		 push	 ebp
  01f61	8b ec		 mov	 ebp, esp
  01f63	83 ec 10	 sub	 esp, 16			; 00000010H

; 1017 :     int i, nsubs, asize = 1;

  01f66	c7 45 f4 01 00
	00 00		 mov	 DWORD PTR _asize$[ebp], 1

; 1018 :     stackitem *isp;
; 1019 : 
; 1020 :     Sl(2);

  01f6d	a1 00 00 00 00	 mov	 eax, DWORD PTR _atl__sp
  01f72	2b 05 00 00 00
	00		 sub	 eax, DWORD PTR _atl__sk
  01f78	c1 f8 02	 sar	 eax, 2
  01f7b	83 f8 02	 cmp	 eax, 2
  01f7e	7d 0a		 jge	 SHORT $LN15@P_array
  01f80	e8 00 00 00 00	 call	 _atl__Esu
  01f85	e9 ec 01 00 00	 jmp	 $LN16@P_array
$LN15@P_array:

; 1021 : #ifndef NOMEMCHECK
; 1022 :     if (S0 <= 0)

  01f8a	8b 0d 00 00 00
	00		 mov	 ecx, DWORD PTR _atl__sp
  01f90	83 79 fc 00	 cmp	 DWORD PTR [ecx-4], 0
  01f94	7f 0d		 jg	 SHORT $LN14@P_array

; 1023 :         trouble("Bad array element size");

  01f96	68 00 00 00 00	 push	 OFFSET $SG83304
  01f9b	e8 00 00 00 00	 call	 _trouble
  01fa0	83 c4 04	 add	 esp, 4
$LN14@P_array:

; 1024 :     if (S1 <= 0)

  01fa3	8b 15 00 00 00
	00		 mov	 edx, DWORD PTR _atl__sp
  01fa9	83 7a f8 00	 cmp	 DWORD PTR [edx-8], 0
  01fad	7f 0d		 jg	 SHORT $LN13@P_array

; 1025 :         trouble("Bad array subscript count");

  01faf	68 00 00 00 00	 push	 OFFSET $SG83306
  01fb4	e8 00 00 00 00	 call	 _trouble
  01fb9	83 c4 04	 add	 esp, 4
$LN13@P_array:

; 1026 : #endif /* NOMEMCHECK */
; 1027 : 
; 1028 :     nsubs = S1; 		      /* Number of subscripts */

  01fbc	a1 00 00 00 00	 mov	 eax, DWORD PTR _atl__sp
  01fc1	8b 48 f8	 mov	 ecx, DWORD PTR [eax-8]
  01fc4	89 4d f8	 mov	 DWORD PTR _nsubs$[ebp], ecx

; 1029 :     Sl(nsubs + 2);		      /* Verify that dimensions are present */

  01fc7	8b 15 00 00 00
	00		 mov	 edx, DWORD PTR _atl__sp
  01fcd	2b 15 00 00 00
	00		 sub	 edx, DWORD PTR _atl__sk
  01fd3	c1 fa 02	 sar	 edx, 2
  01fd6	8b 45 f8	 mov	 eax, DWORD PTR _nsubs$[ebp]
  01fd9	83 c0 02	 add	 eax, 2
  01fdc	3b d0		 cmp	 edx, eax
  01fde	7d 0a		 jge	 SHORT $LN12@P_array
  01fe0	e8 00 00 00 00	 call	 _atl__Esu
  01fe5	e9 8c 01 00 00	 jmp	 $LN16@P_array
$LN12@P_array:

; 1030 : 
; 1031 :     /* Calculate size of array as the product of the subscripts */
; 1032 : 
; 1033 :     asize = S0; 		      /* Fundamental element size */

  01fea	8b 0d 00 00 00
	00		 mov	 ecx, DWORD PTR _atl__sp
  01ff0	8b 51 fc	 mov	 edx, DWORD PTR [ecx-4]
  01ff3	89 55 f4	 mov	 DWORD PTR _asize$[ebp], edx

; 1034 :     isp = &S2;

  01ff6	a1 00 00 00 00	 mov	 eax, DWORD PTR _atl__sp
  01ffb	83 e8 0c	 sub	 eax, 12			; 0000000cH
  01ffe	89 45 f0	 mov	 DWORD PTR _isp$[ebp], eax

; 1035 :     for (i = 0; i < nsubs; i++) {

  02001	c7 45 fc 00 00
	00 00		 mov	 DWORD PTR _i$[ebp], 0
  02008	eb 09		 jmp	 SHORT $LN11@P_array
$LN10@P_array:
  0200a	8b 4d fc	 mov	 ecx, DWORD PTR _i$[ebp]
  0200d	83 c1 01	 add	 ecx, 1
  02010	89 4d fc	 mov	 DWORD PTR _i$[ebp], ecx
$LN11@P_array:
  02013	8b 55 fc	 mov	 edx, DWORD PTR _i$[ebp]
  02016	3b 55 f8	 cmp	 edx, DWORD PTR _nsubs$[ebp]
  02019	7d 2c		 jge	 SHORT $LN9@P_array

; 1036 : #ifndef NOMEMCHECK
; 1037 : 	if (*isp <= 0)

  0201b	8b 45 f0	 mov	 eax, DWORD PTR _isp$[ebp]
  0201e	83 38 00	 cmp	 DWORD PTR [eax], 0
  02021	7f 0d		 jg	 SHORT $LN8@P_array

; 1038 :             trouble("Bad array dimension");

  02023	68 00 00 00 00	 push	 OFFSET $SG83312
  02028	e8 00 00 00 00	 call	 _trouble
  0202d	83 c4 04	 add	 esp, 4
$LN8@P_array:

; 1039 : #endif /* NOMEMCHECK */
; 1040 : 	asize *= *isp--;

  02030	8b 4d f0	 mov	 ecx, DWORD PTR _isp$[ebp]
  02033	8b 55 f4	 mov	 edx, DWORD PTR _asize$[ebp]
  02036	0f af 11	 imul	 edx, DWORD PTR [ecx]
  02039	89 55 f4	 mov	 DWORD PTR _asize$[ebp], edx
  0203c	8b 45 f0	 mov	 eax, DWORD PTR _isp$[ebp]
  0203f	83 e8 04	 sub	 eax, 4
  02042	89 45 f0	 mov	 DWORD PTR _isp$[ebp], eax

; 1041 :     }

  02045	eb c3		 jmp	 SHORT $LN10@P_array
$LN9@P_array:

; 1042 : 
; 1043 :     asize = (asize + (sizeof(stackitem) - 1)) / sizeof(stackitem);

  02047	8b 4d f4	 mov	 ecx, DWORD PTR _asize$[ebp]
  0204a	83 c1 03	 add	 ecx, 3
  0204d	c1 e9 02	 shr	 ecx, 2
  02050	89 4d f4	 mov	 DWORD PTR _asize$[ebp], ecx

; 1044 :     Ho(asize + nsubs + 2);	      /* Reserve space for array and header */

  02053	8b 55 f4	 mov	 edx, DWORD PTR _asize$[ebp]
  02056	03 55 f8	 add	 edx, DWORD PTR _nsubs$[ebp]
  02059	a1 00 00 00 00	 mov	 eax, DWORD PTR _atl__hp
  0205e	8d 4c 90 08	 lea	 ecx, DWORD PTR [eax+edx*4+8]
  02062	3b 0d 00 00 00
	00		 cmp	 ecx, DWORD PTR _atl__hx
  02068	76 15		 jbe	 SHORT $LN7@P_array
  0206a	8b 55 f4	 mov	 edx, DWORD PTR _asize$[ebp]
  0206d	03 55 f8	 add	 edx, DWORD PTR _nsubs$[ebp]
  02070	a1 00 00 00 00	 mov	 eax, DWORD PTR _atl__hp
  02075	8d 4c 90 08	 lea	 ecx, DWORD PTR [eax+edx*4+8]
  02079	89 0d 00 00 00
	00		 mov	 DWORD PTR _atl__hx, ecx
$LN7@P_array:
  0207f	8b 55 f4	 mov	 edx, DWORD PTR _asize$[ebp]
  02082	03 55 f8	 add	 edx, DWORD PTR _nsubs$[ebp]
  02085	a1 00 00 00 00	 mov	 eax, DWORD PTR _atl__hp
  0208a	8d 4c 90 08	 lea	 ecx, DWORD PTR [eax+edx*4+8]
  0208e	3b 0d 00 00 00
	00		 cmp	 ecx, DWORD PTR _atl__ht
  02094	76 0a		 jbe	 SHORT $LN6@P_array
  02096	e8 00 00 00 00	 call	 _atl__Eho
  0209b	e9 d6 00 00 00	 jmp	 $LN16@P_array
$LN6@P_array:

; 1045 :     P_create(); 		      /* Create variable */

  020a0	e8 00 00 00 00	 call	 _atl__Pcr

; 1046 :     createword->wcode = P_arraysub;   /* Set method to subscript calculate */

  020a5	8b 15 00 00 00
	00		 mov	 edx, DWORD PTR _atl__wd
  020ab	c7 42 08 00 00
	00 00		 mov	 DWORD PTR [edx+8], OFFSET _P_arraysub

; 1047 :     Hstore = nsubs;		      /* Header <- Number of subscripts */

  020b2	a1 00 00 00 00	 mov	 eax, DWORD PTR _atl__hp
  020b7	8b 4d f8	 mov	 ecx, DWORD PTR _nsubs$[ebp]
  020ba	89 08		 mov	 DWORD PTR [eax], ecx
  020bc	8b 15 00 00 00
	00		 mov	 edx, DWORD PTR _atl__hp
  020c2	83 c2 04	 add	 edx, 4
  020c5	89 15 00 00 00
	00		 mov	 DWORD PTR _atl__hp, edx

; 1048 :     Hstore = S0;		      /* Header <- Fundamental element size */

  020cb	a1 00 00 00 00	 mov	 eax, DWORD PTR _atl__hp
  020d0	8b 0d 00 00 00
	00		 mov	 ecx, DWORD PTR _atl__sp
  020d6	8b 51 fc	 mov	 edx, DWORD PTR [ecx-4]
  020d9	89 10		 mov	 DWORD PTR [eax], edx
  020db	a1 00 00 00 00	 mov	 eax, DWORD PTR _atl__hp
  020e0	83 c0 04	 add	 eax, 4
  020e3	a3 00 00 00 00	 mov	 DWORD PTR _atl__hp, eax

; 1049 :     isp = &S2;

  020e8	8b 0d 00 00 00
	00		 mov	 ecx, DWORD PTR _atl__sp
  020ee	83 e9 0c	 sub	 ecx, 12			; 0000000cH
  020f1	89 4d f0	 mov	 DWORD PTR _isp$[ebp], ecx

; 1050 :     for (i = 0; i < nsubs; i++) {     /* Header <- Store subscripts */

  020f4	c7 45 fc 00 00
	00 00		 mov	 DWORD PTR _i$[ebp], 0
  020fb	eb 09		 jmp	 SHORT $LN5@P_array
$LN4@P_array:
  020fd	8b 55 fc	 mov	 edx, DWORD PTR _i$[ebp]
  02100	83 c2 01	 add	 edx, 1
  02103	89 55 fc	 mov	 DWORD PTR _i$[ebp], edx
$LN5@P_array:
  02106	8b 45 fc	 mov	 eax, DWORD PTR _i$[ebp]
  02109	3b 45 f8	 cmp	 eax, DWORD PTR _nsubs$[ebp]
  0210c	7d 27		 jge	 SHORT $LN2@P_array

; 1051 : 	Hstore = *isp--;

  0210e	8b 0d 00 00 00
	00		 mov	 ecx, DWORD PTR _atl__hp
  02114	8b 55 f0	 mov	 edx, DWORD PTR _isp$[ebp]
  02117	8b 02		 mov	 eax, DWORD PTR [edx]
  02119	89 01		 mov	 DWORD PTR [ecx], eax
  0211b	8b 0d 00 00 00
	00		 mov	 ecx, DWORD PTR _atl__hp
  02121	83 c1 04	 add	 ecx, 4
  02124	89 0d 00 00 00
	00		 mov	 DWORD PTR _atl__hp, ecx
  0212a	8b 55 f0	 mov	 edx, DWORD PTR _isp$[ebp]
  0212d	83 ea 04	 sub	 edx, 4
  02130	89 55 f0	 mov	 DWORD PTR _isp$[ebp], edx

; 1052 :     }

  02133	eb c8		 jmp	 SHORT $LN4@P_array
$LN2@P_array:

; 1053 :     while (asize-- > 0) 	      /* Clear the array to zero */

  02135	8b 45 f4	 mov	 eax, DWORD PTR _asize$[ebp]
  02138	8b 4d f4	 mov	 ecx, DWORD PTR _asize$[ebp]
  0213b	83 e9 01	 sub	 ecx, 1
  0213e	89 4d f4	 mov	 DWORD PTR _asize$[ebp], ecx
  02141	85 c0		 test	 eax, eax
  02143	7e 1b		 jle	 SHORT $LN1@P_array

; 1054 : 	Hstore = 0;

  02145	8b 15 00 00 00
	00		 mov	 edx, DWORD PTR _atl__hp
  0214b	c7 02 00 00 00
	00		 mov	 DWORD PTR [edx], 0
  02151	a1 00 00 00 00	 mov	 eax, DWORD PTR _atl__hp
  02156	83 c0 04	 add	 eax, 4
  02159	a3 00 00 00 00	 mov	 DWORD PTR _atl__hp, eax
  0215e	eb d5		 jmp	 SHORT $LN2@P_array
$LN1@P_array:

; 1055 :     Npop(nsubs + 2);

  02160	8b 4d f8	 mov	 ecx, DWORD PTR _nsubs$[ebp]
  02163	8d 14 8d 08 00
	00 00		 lea	 edx, DWORD PTR [ecx*4+8]
  0216a	a1 00 00 00 00	 mov	 eax, DWORD PTR _atl__sp
  0216f	2b c2		 sub	 eax, edx
  02171	a3 00 00 00 00	 mov	 DWORD PTR _atl__sp, eax
$LN16@P_array:

; 1056 : }

  02176	8b e5		 mov	 esp, ebp
  02178	5d		 pop	 ebp
  02179	c3		 ret	 0
_P_array ENDP
; Function compile flags: /Odtp
_subn$83283 = -28					; size = 4
_array$ = -24						; size = 4
_isp$ = -20						; size = 4
_offset$ = -16						; size = 4
_nsubs$ = -12						; size = 4
_i$ = -8						; size = 4
_esize$ = -4						; size = 4
_P_arraysub PROC

; 982  : {				      /* sub1 sub2 ... subn -- addr */

  02180	55		 push	 ebp
  02181	8b ec		 mov	 ebp, esp
  02183	83 ec 1c	 sub	 esp, 28			; 0000001cH

; 983  :     int i, offset, esize, nsubs;
; 984  :     stackitem *array;
; 985  :     stackitem *isp;
; 986  : 
; 987  :     Sl(1);

  02186	a1 00 00 00 00	 mov	 eax, DWORD PTR _atl__sp
  0218b	2b 05 00 00 00
	00		 sub	 eax, DWORD PTR _atl__sk
  02191	c1 f8 02	 sar	 eax, 2
  02194	83 f8 01	 cmp	 eax, 1
  02197	7d 0a		 jge	 SHORT $LN11@P_arraysub
  02199	e8 00 00 00 00	 call	 _atl__Esu
  0219e	e9 30 01 00 00	 jmp	 $LN12@P_arraysub
$LN11@P_arraysub:

; 988  :     array = (((stackitem *) curword) + Dictwordl);

  021a3	8b 0d 00 00 00
	00		 mov	 ecx, DWORD PTR _atl__cw
  021a9	83 c1 0c	 add	 ecx, 12			; 0000000cH
  021ac	89 4d e8	 mov	 DWORD PTR _array$[ebp], ecx

; 989  :     Hpc(array);

  021af	8b 55 e8	 mov	 edx, DWORD PTR _array$[ebp]
  021b2	3b 15 00 00 00
	00		 cmp	 edx, DWORD PTR _atl__hs
  021b8	72 0b		 jb	 SHORT $LN9@P_arraysub
  021ba	8b 45 e8	 mov	 eax, DWORD PTR _array$[ebp]
  021bd	3b 05 00 00 00
	00		 cmp	 eax, DWORD PTR _atl__ht
  021c3	72 0a		 jb	 SHORT $LN10@P_arraysub
$LN9@P_arraysub:
  021c5	e8 00 00 00 00	 call	 _atl__Ebp
  021ca	e9 04 01 00 00	 jmp	 $LN12@P_arraysub
$LN10@P_arraysub:

; 990  :     nsubs = *array++;		      /* Load number of subscripts */

  021cf	8b 4d e8	 mov	 ecx, DWORD PTR _array$[ebp]
  021d2	8b 11		 mov	 edx, DWORD PTR [ecx]
  021d4	89 55 f4	 mov	 DWORD PTR _nsubs$[ebp], edx
  021d7	8b 45 e8	 mov	 eax, DWORD PTR _array$[ebp]
  021da	83 c0 04	 add	 eax, 4
  021dd	89 45 e8	 mov	 DWORD PTR _array$[ebp], eax

; 991  :     esize = *array++;		      /* Load element size */

  021e0	8b 4d e8	 mov	 ecx, DWORD PTR _array$[ebp]
  021e3	8b 11		 mov	 edx, DWORD PTR [ecx]
  021e5	89 55 fc	 mov	 DWORD PTR _esize$[ebp], edx
  021e8	8b 45 e8	 mov	 eax, DWORD PTR _array$[ebp]
  021eb	83 c0 04	 add	 eax, 4
  021ee	89 45 e8	 mov	 DWORD PTR _array$[ebp], eax

; 992  : #ifndef NOMEMCHECK
; 993  :     isp = &S0;

  021f1	8b 0d 00 00 00
	00		 mov	 ecx, DWORD PTR _atl__sp
  021f7	83 e9 04	 sub	 ecx, 4
  021fa	89 4d ec	 mov	 DWORD PTR _isp$[ebp], ecx

; 994  :     for (i = 0; i < nsubs; i++) {

  021fd	c7 45 f8 00 00
	00 00		 mov	 DWORD PTR _i$[ebp], 0
  02204	eb 09		 jmp	 SHORT $LN8@P_arraysub
$LN7@P_arraysub:
  02206	8b 55 f8	 mov	 edx, DWORD PTR _i$[ebp]
  02209	83 c2 01	 add	 edx, 1
  0220c	89 55 f8	 mov	 DWORD PTR _i$[ebp], edx
$LN8@P_arraysub:
  0220f	8b 45 f8	 mov	 eax, DWORD PTR _i$[ebp]
  02212	3b 45 f4	 cmp	 eax, DWORD PTR _nsubs$[ebp]
  02215	7d 34		 jge	 SHORT $LN6@P_arraysub

; 995  : 	stackitem subn = *isp--;

  02217	8b 4d ec	 mov	 ecx, DWORD PTR _isp$[ebp]
  0221a	8b 11		 mov	 edx, DWORD PTR [ecx]
  0221c	89 55 e4	 mov	 DWORD PTR _subn$83283[ebp], edx
  0221f	8b 45 ec	 mov	 eax, DWORD PTR _isp$[ebp]
  02222	83 e8 04	 sub	 eax, 4
  02225	89 45 ec	 mov	 DWORD PTR _isp$[ebp], eax

; 996  : 
; 997  : 	if (subn < 0 || subn >= array[i])

  02228	83 7d e4 00	 cmp	 DWORD PTR _subn$83283[ebp], 0
  0222c	7c 0e		 jl	 SHORT $LN4@P_arraysub
  0222e	8b 4d f8	 mov	 ecx, DWORD PTR _i$[ebp]
  02231	8b 55 e8	 mov	 edx, DWORD PTR _array$[ebp]
  02234	8b 45 e4	 mov	 eax, DWORD PTR _subn$83283[ebp]
  02237	3b 04 8a	 cmp	 eax, DWORD PTR [edx+ecx*4]
  0223a	7c 0d		 jl	 SHORT $LN5@P_arraysub
$LN4@P_arraysub:

; 998  :             trouble("Subscript out of range");

  0223c	68 00 00 00 00	 push	 OFFSET $SG83286
  02241	e8 00 00 00 00	 call	 _trouble
  02246	83 c4 04	 add	 esp, 4
$LN5@P_arraysub:

; 999  :     }

  02249	eb bb		 jmp	 SHORT $LN7@P_arraysub
$LN6@P_arraysub:

; 1000 : #endif /* NOMEMCHECK */
; 1001 :     isp = &S0;

  0224b	8b 0d 00 00 00
	00		 mov	 ecx, DWORD PTR _atl__sp
  02251	83 e9 04	 sub	 ecx, 4
  02254	89 4d ec	 mov	 DWORD PTR _isp$[ebp], ecx

; 1002 :     offset = *isp;		      /* Load initial offset */

  02257	8b 55 ec	 mov	 edx, DWORD PTR _isp$[ebp]
  0225a	8b 02		 mov	 eax, DWORD PTR [edx]
  0225c	89 45 f0	 mov	 DWORD PTR _offset$[ebp], eax

; 1003 :     for (i = 1; i < nsubs; i++)

  0225f	c7 45 f8 01 00
	00 00		 mov	 DWORD PTR _i$[ebp], 1
  02266	eb 09		 jmp	 SHORT $LN3@P_arraysub
$LN2@P_arraysub:
  02268	8b 4d f8	 mov	 ecx, DWORD PTR _i$[ebp]
  0226b	83 c1 01	 add	 ecx, 1
  0226e	89 4d f8	 mov	 DWORD PTR _i$[ebp], ecx
$LN3@P_arraysub:
  02271	8b 55 f8	 mov	 edx, DWORD PTR _i$[ebp]
  02274	3b 55 f4	 cmp	 edx, DWORD PTR _nsubs$[ebp]
  02277	7d 25		 jge	 SHORT $LN1@P_arraysub

; 1004 : 	offset = (offset * (*(++array))) + *(--isp);

  02279	8b 45 e8	 mov	 eax, DWORD PTR _array$[ebp]
  0227c	83 c0 04	 add	 eax, 4
  0227f	89 45 e8	 mov	 DWORD PTR _array$[ebp], eax
  02282	8b 4d ec	 mov	 ecx, DWORD PTR _isp$[ebp]
  02285	83 e9 04	 sub	 ecx, 4
  02288	89 4d ec	 mov	 DWORD PTR _isp$[ebp], ecx
  0228b	8b 55 e8	 mov	 edx, DWORD PTR _array$[ebp]
  0228e	8b 45 f0	 mov	 eax, DWORD PTR _offset$[ebp]
  02291	0f af 02	 imul	 eax, DWORD PTR [edx]
  02294	8b 4d ec	 mov	 ecx, DWORD PTR _isp$[ebp]
  02297	03 01		 add	 eax, DWORD PTR [ecx]
  02299	89 45 f0	 mov	 DWORD PTR _offset$[ebp], eax
  0229c	eb ca		 jmp	 SHORT $LN2@P_arraysub
$LN1@P_arraysub:

; 1005 :     Npop(nsubs - 1);

  0229e	8b 55 f4	 mov	 edx, DWORD PTR _nsubs$[ebp]
  022a1	8d 04 95 fc ff
	ff ff		 lea	 eax, DWORD PTR [edx*4-4]
  022a8	8b 0d 00 00 00
	00		 mov	 ecx, DWORD PTR _atl__sp
  022ae	2b c8		 sub	 ecx, eax
  022b0	89 0d 00 00 00
	00		 mov	 DWORD PTR _atl__sp, ecx

; 1006 :     /* Calculate subscripted address.  We start at the current word,
; 1007 :        advance to the body, skip two more words for the subscript count
; 1008 :        and the fundamental element size, then skip the subscript bounds
; 1009 :        words (as many as there are subscripts).  Then, finally, we
; 1010 :        can add the calculated offset into the array. */
; 1011 :     S0 = (stackitem) (((char *) (((stackitem *) curword) +
; 1012 : 	    Dictwordl + 2 + nsubs)) + (esize * offset));

  022b6	8b 55 f4	 mov	 edx, DWORD PTR _nsubs$[ebp]
  022b9	a1 00 00 00 00	 mov	 eax, DWORD PTR _atl__cw
  022be	8d 4c 90 14	 lea	 ecx, DWORD PTR [eax+edx*4+20]
  022c2	8b 55 fc	 mov	 edx, DWORD PTR _esize$[ebp]
  022c5	0f af 55 f0	 imul	 edx, DWORD PTR _offset$[ebp]
  022c9	03 ca		 add	 ecx, edx
  022cb	a1 00 00 00 00	 mov	 eax, DWORD PTR _atl__sp
  022d0	89 48 fc	 mov	 DWORD PTR [eax-4], ecx
$LN12@P_arraysub:

; 1013 : }

  022d3	8b e5		 mov	 esp, ebp
  022d5	5d		 pop	 ebp
  022d6	c3		 ret	 0
_P_arraysub ENDP
; Function compile flags: /Odtp
_P_strlit PROC

; 1064 : {

  022e0	55		 push	 ebp
  022e1	8b ec		 mov	 ebp, esp

; 1065 :     So(1);

  022e3	a1 00 00 00 00	 mov	 eax, DWORD PTR _atl__sp
  022e8	83 c0 04	 add	 eax, 4
  022eb	3b 05 00 00 00
	00		 cmp	 eax, DWORD PTR _atl__sx
  022f1	76 0f		 jbe	 SHORT $LN3@P_strlit
  022f3	8b 0d 00 00 00
	00		 mov	 ecx, DWORD PTR _atl__sp
  022f9	83 c1 04	 add	 ecx, 4
  022fc	89 0d 00 00 00
	00		 mov	 DWORD PTR _atl__sx, ecx
$LN3@P_strlit:
  02302	8b 15 00 00 00
	00		 mov	 edx, DWORD PTR _atl__sp
  02308	83 c2 04	 add	 edx, 4
  0230b	3b 15 00 00 00
	00		 cmp	 edx, DWORD PTR _atl__st
  02311	76 07		 jbe	 SHORT $LN2@P_strlit
  02313	e8 00 00 00 00	 call	 _atl__Eso
  02318	eb 55		 jmp	 SHORT $LN4@P_strlit
$LN2@P_strlit:

; 1066 :     Push = (stackitem) (((char *) ip) + 1);

  0231a	a1 00 00 00 00	 mov	 eax, DWORD PTR _atl__ip
  0231f	83 c0 01	 add	 eax, 1
  02322	8b 0d 00 00 00
	00		 mov	 ecx, DWORD PTR _atl__sp
  02328	89 01		 mov	 DWORD PTR [ecx], eax
  0232a	8b 15 00 00 00
	00		 mov	 edx, DWORD PTR _atl__sp
  02330	83 c2 04	 add	 edx, 4
  02333	89 15 00 00 00
	00		 mov	 DWORD PTR _atl__sp, edx

; 1067 : #ifdef TRACE
; 1068 :     if (atl_trace) {

  02339	83 3d 00 00 00
	00 00		 cmp	 DWORD PTR _atl_trace, 0
  02340	74 16		 je	 SHORT $LN1@P_strlit

; 1069 :         V printf("\"%s\" ", (((char *) ip) + 1));

  02342	a1 00 00 00 00	 mov	 eax, DWORD PTR _atl__ip
  02347	83 c0 01	 add	 eax, 1
  0234a	50		 push	 eax
  0234b	68 00 00 00 00	 push	 OFFSET $SG83332
  02350	e8 00 00 00 00	 call	 _printf
  02355	83 c4 08	 add	 esp, 8
$LN1@P_strlit:

; 1070 :     }
; 1071 : #endif /* TRACE */
; 1072 :     Skipstring; 		      /* Advance IP past it */

  02358	8b 0d 00 00 00
	00		 mov	 ecx, DWORD PTR _atl__ip
  0235e	0f be 11	 movsx	 edx, BYTE PTR [ecx]
  02361	a1 00 00 00 00	 mov	 eax, DWORD PTR _atl__ip
  02366	8d 0c 90	 lea	 ecx, DWORD PTR [eax+edx*4]
  02369	89 0d 00 00 00
	00		 mov	 DWORD PTR _atl__ip, ecx
$LN4@P_strlit:

; 1073 : }

  0236f	5d		 pop	 ebp
  02370	c3		 ret	 0
_P_strlit ENDP
; Function compile flags: /Odtp
_P_string PROC

; 1076 : {

  02380	55		 push	 ebp
  02381	8b ec		 mov	 ebp, esp

; 1077 :     Sl(1);

  02383	a1 00 00 00 00	 mov	 eax, DWORD PTR _atl__sp
  02388	2b 05 00 00 00
	00		 sub	 eax, DWORD PTR _atl__sk
  0238e	c1 f8 02	 sar	 eax, 2
  02391	83 f8 01	 cmp	 eax, 1
  02394	7d 0a		 jge	 SHORT $LN3@P_string
  02396	e8 00 00 00 00	 call	 _atl__Esu
  0239b	e9 94 00 00 00	 jmp	 $LN4@P_string
$LN3@P_string:

; 1078 :     Ho((S0 + 1 + sizeof(stackitem)) / sizeof(stackitem));

  023a0	8b 0d 00 00 00
	00		 mov	 ecx, DWORD PTR _atl__sp
  023a6	8b 51 fc	 mov	 edx, DWORD PTR [ecx-4]
  023a9	83 c2 05	 add	 edx, 5
  023ac	c1 ea 02	 shr	 edx, 2
  023af	a1 00 00 00 00	 mov	 eax, DWORD PTR _atl__hp
  023b4	8d 0c 90	 lea	 ecx, DWORD PTR [eax+edx*4]
  023b7	3b 0d 00 00 00
	00		 cmp	 ecx, DWORD PTR _atl__hx
  023bd	76 1e		 jbe	 SHORT $LN2@P_string
  023bf	8b 15 00 00 00
	00		 mov	 edx, DWORD PTR _atl__sp
  023c5	8b 42 fc	 mov	 eax, DWORD PTR [edx-4]
  023c8	83 c0 05	 add	 eax, 5
  023cb	c1 e8 02	 shr	 eax, 2
  023ce	8b 0d 00 00 00
	00		 mov	 ecx, DWORD PTR _atl__hp
  023d4	8d 14 81	 lea	 edx, DWORD PTR [ecx+eax*4]
  023d7	89 15 00 00 00
	00		 mov	 DWORD PTR _atl__hx, edx
$LN2@P_string:
  023dd	a1 00 00 00 00	 mov	 eax, DWORD PTR _atl__sp
  023e2	8b 48 fc	 mov	 ecx, DWORD PTR [eax-4]
  023e5	83 c1 05	 add	 ecx, 5
  023e8	c1 e9 02	 shr	 ecx, 2
  023eb	8b 15 00 00 00
	00		 mov	 edx, DWORD PTR _atl__hp
  023f1	8d 04 8a	 lea	 eax, DWORD PTR [edx+ecx*4]
  023f4	3b 05 00 00 00
	00		 cmp	 eax, DWORD PTR _atl__ht
  023fa	76 07		 jbe	 SHORT $LN1@P_string
  023fc	e8 00 00 00 00	 call	 _atl__Eho
  02401	eb 31		 jmp	 SHORT $LN4@P_string
$LN1@P_string:

; 1079 :     P_create(); 		      /* Create variable */

  02403	e8 00 00 00 00	 call	 _atl__Pcr

; 1080 :     /* Allocate storage for string */
; 1081 :     hptr += (S0 + 1 + sizeof(stackitem)) / sizeof(stackitem);

  02408	8b 0d 00 00 00
	00		 mov	 ecx, DWORD PTR _atl__sp
  0240e	8b 51 fc	 mov	 edx, DWORD PTR [ecx-4]
  02411	83 c2 05	 add	 edx, 5
  02414	c1 ea 02	 shr	 edx, 2
  02417	a1 00 00 00 00	 mov	 eax, DWORD PTR _atl__hp
  0241c	8d 0c 90	 lea	 ecx, DWORD PTR [eax+edx*4]
  0241f	89 0d 00 00 00
	00		 mov	 DWORD PTR _atl__hp, ecx

; 1082 :     Pop;

  02425	8b 15 00 00 00
	00		 mov	 edx, DWORD PTR _atl__sp
  0242b	83 ea 04	 sub	 edx, 4
  0242e	89 15 00 00 00
	00		 mov	 DWORD PTR _atl__sp, edx
$LN4@P_string:

; 1083 : }

  02434	5d		 pop	 ebp
  02435	c3		 ret	 0
_P_string ENDP
_TEXT	ENDS
EXTRN	_strcpy:PROC
; Function compile flags: /Odtp
_TEXT	SEGMENT
_P_strcpy PROC

; 1086 : {

  02440	55		 push	 ebp
  02441	8b ec		 mov	 ebp, esp

; 1087 :     Sl(2);

  02443	a1 00 00 00 00	 mov	 eax, DWORD PTR _atl__sp
  02448	2b 05 00 00 00
	00		 sub	 eax, DWORD PTR _atl__sk
  0244e	c1 f8 02	 sar	 eax, 2
  02451	83 f8 02	 cmp	 eax, 2
  02454	7d 07		 jge	 SHORT $LN5@P_strcpy
  02456	e8 00 00 00 00	 call	 _atl__Esu
  0245b	eb 7b		 jmp	 SHORT $LN6@P_strcpy
$LN5@P_strcpy:

; 1088 :     Hpc(S0);

  0245d	8b 0d 00 00 00
	00		 mov	 ecx, DWORD PTR _atl__sp
  02463	8b 51 fc	 mov	 edx, DWORD PTR [ecx-4]
  02466	3b 15 00 00 00
	00		 cmp	 edx, DWORD PTR _atl__hs
  0246c	72 10		 jb	 SHORT $LN3@P_strcpy
  0246e	a1 00 00 00 00	 mov	 eax, DWORD PTR _atl__sp
  02473	8b 48 fc	 mov	 ecx, DWORD PTR [eax-4]
  02476	3b 0d 00 00 00
	00		 cmp	 ecx, DWORD PTR _atl__ht
  0247c	72 07		 jb	 SHORT $LN4@P_strcpy
$LN3@P_strcpy:
  0247e	e8 00 00 00 00	 call	 _atl__Ebp
  02483	eb 53		 jmp	 SHORT $LN6@P_strcpy
$LN4@P_strcpy:

; 1089 :     Hpc(S1);

  02485	8b 15 00 00 00
	00		 mov	 edx, DWORD PTR _atl__sp
  0248b	8b 42 f8	 mov	 eax, DWORD PTR [edx-8]
  0248e	3b 05 00 00 00
	00		 cmp	 eax, DWORD PTR _atl__hs
  02494	72 11		 jb	 SHORT $LN1@P_strcpy
  02496	8b 0d 00 00 00
	00		 mov	 ecx, DWORD PTR _atl__sp
  0249c	8b 51 f8	 mov	 edx, DWORD PTR [ecx-8]
  0249f	3b 15 00 00 00
	00		 cmp	 edx, DWORD PTR _atl__ht
  024a5	72 07		 jb	 SHORT $LN2@P_strcpy
$LN1@P_strcpy:
  024a7	e8 00 00 00 00	 call	 _atl__Ebp
  024ac	eb 2a		 jmp	 SHORT $LN6@P_strcpy
$LN2@P_strcpy:

; 1090 :     V strcpy((char *) S0, (char *) S1);

  024ae	a1 00 00 00 00	 mov	 eax, DWORD PTR _atl__sp
  024b3	8b 48 f8	 mov	 ecx, DWORD PTR [eax-8]
  024b6	51		 push	 ecx
  024b7	8b 15 00 00 00
	00		 mov	 edx, DWORD PTR _atl__sp
  024bd	8b 42 fc	 mov	 eax, DWORD PTR [edx-4]
  024c0	50		 push	 eax
  024c1	e8 00 00 00 00	 call	 _strcpy
  024c6	83 c4 08	 add	 esp, 8

; 1091 :     Pop2;

  024c9	8b 0d 00 00 00
	00		 mov	 ecx, DWORD PTR _atl__sp
  024cf	83 e9 08	 sub	 ecx, 8
  024d2	89 0d 00 00 00
	00		 mov	 DWORD PTR _atl__sp, ecx
$LN6@P_strcpy:

; 1092 : }

  024d8	5d		 pop	 ebp
  024d9	c3		 ret	 0
_P_strcpy ENDP
_TEXT	ENDS
EXTRN	_strcat:PROC
; Function compile flags: /Odtp
_TEXT	SEGMENT
_P_strcat PROC

; 1095 : {

  024e0	55		 push	 ebp
  024e1	8b ec		 mov	 ebp, esp

; 1096 :     Sl(2);

  024e3	a1 00 00 00 00	 mov	 eax, DWORD PTR _atl__sp
  024e8	2b 05 00 00 00
	00		 sub	 eax, DWORD PTR _atl__sk
  024ee	c1 f8 02	 sar	 eax, 2
  024f1	83 f8 02	 cmp	 eax, 2
  024f4	7d 07		 jge	 SHORT $LN5@P_strcat
  024f6	e8 00 00 00 00	 call	 _atl__Esu
  024fb	eb 7b		 jmp	 SHORT $LN6@P_strcat
$LN5@P_strcat:

; 1097 :     Hpc(S0);

  024fd	8b 0d 00 00 00
	00		 mov	 ecx, DWORD PTR _atl__sp
  02503	8b 51 fc	 mov	 edx, DWORD PTR [ecx-4]
  02506	3b 15 00 00 00
	00		 cmp	 edx, DWORD PTR _atl__hs
  0250c	72 10		 jb	 SHORT $LN3@P_strcat
  0250e	a1 00 00 00 00	 mov	 eax, DWORD PTR _atl__sp
  02513	8b 48 fc	 mov	 ecx, DWORD PTR [eax-4]
  02516	3b 0d 00 00 00
	00		 cmp	 ecx, DWORD PTR _atl__ht
  0251c	72 07		 jb	 SHORT $LN4@P_strcat
$LN3@P_strcat:
  0251e	e8 00 00 00 00	 call	 _atl__Ebp
  02523	eb 53		 jmp	 SHORT $LN6@P_strcat
$LN4@P_strcat:

; 1098 :     Hpc(S1);

  02525	8b 15 00 00 00
	00		 mov	 edx, DWORD PTR _atl__sp
  0252b	8b 42 f8	 mov	 eax, DWORD PTR [edx-8]
  0252e	3b 05 00 00 00
	00		 cmp	 eax, DWORD PTR _atl__hs
  02534	72 11		 jb	 SHORT $LN1@P_strcat
  02536	8b 0d 00 00 00
	00		 mov	 ecx, DWORD PTR _atl__sp
  0253c	8b 51 f8	 mov	 edx, DWORD PTR [ecx-8]
  0253f	3b 15 00 00 00
	00		 cmp	 edx, DWORD PTR _atl__ht
  02545	72 07		 jb	 SHORT $LN2@P_strcat
$LN1@P_strcat:
  02547	e8 00 00 00 00	 call	 _atl__Ebp
  0254c	eb 2a		 jmp	 SHORT $LN6@P_strcat
$LN2@P_strcat:

; 1099 :     V strcat((char *) S0, (char *) S1);

  0254e	a1 00 00 00 00	 mov	 eax, DWORD PTR _atl__sp
  02553	8b 48 f8	 mov	 ecx, DWORD PTR [eax-8]
  02556	51		 push	 ecx
  02557	8b 15 00 00 00
	00		 mov	 edx, DWORD PTR _atl__sp
  0255d	8b 42 fc	 mov	 eax, DWORD PTR [edx-4]
  02560	50		 push	 eax
  02561	e8 00 00 00 00	 call	 _strcat
  02566	83 c4 08	 add	 esp, 8

; 1100 :     Pop2;

  02569	8b 0d 00 00 00
	00		 mov	 ecx, DWORD PTR _atl__sp
  0256f	83 e9 08	 sub	 ecx, 8
  02572	89 0d 00 00 00
	00		 mov	 DWORD PTR _atl__sp, ecx
$LN6@P_strcat:

; 1101 : }

  02578	5d		 pop	 ebp
  02579	c3		 ret	 0
_P_strcat ENDP
; Function compile flags: /Odtp
_P_strlen PROC

; 1104 : {

  02580	55		 push	 ebp
  02581	8b ec		 mov	 ebp, esp

; 1105 :     Sl(1);

  02583	a1 00 00 00 00	 mov	 eax, DWORD PTR _atl__sp
  02588	2b 05 00 00 00
	00		 sub	 eax, DWORD PTR _atl__sk
  0258e	c1 f8 02	 sar	 eax, 2
  02591	83 f8 01	 cmp	 eax, 1
  02594	7d 07		 jge	 SHORT $LN3@P_strlen
  02596	e8 00 00 00 00	 call	 _atl__Esu
  0259b	eb 43		 jmp	 SHORT $LN4@P_strlen
$LN3@P_strlen:

; 1106 :     Hpc(S0);

  0259d	8b 0d 00 00 00
	00		 mov	 ecx, DWORD PTR _atl__sp
  025a3	8b 51 fc	 mov	 edx, DWORD PTR [ecx-4]
  025a6	3b 15 00 00 00
	00		 cmp	 edx, DWORD PTR _atl__hs
  025ac	72 10		 jb	 SHORT $LN1@P_strlen
  025ae	a1 00 00 00 00	 mov	 eax, DWORD PTR _atl__sp
  025b3	8b 48 fc	 mov	 ecx, DWORD PTR [eax-4]
  025b6	3b 0d 00 00 00
	00		 cmp	 ecx, DWORD PTR _atl__ht
  025bc	72 07		 jb	 SHORT $LN2@P_strlen
$LN1@P_strlen:
  025be	e8 00 00 00 00	 call	 _atl__Ebp
  025c3	eb 1b		 jmp	 SHORT $LN4@P_strlen
$LN2@P_strlen:

; 1107 :     S0 = strlen((char *) S0);

  025c5	8b 15 00 00 00
	00		 mov	 edx, DWORD PTR _atl__sp
  025cb	8b 42 fc	 mov	 eax, DWORD PTR [edx-4]
  025ce	50		 push	 eax
  025cf	e8 00 00 00 00	 call	 _strlen
  025d4	83 c4 04	 add	 esp, 4
  025d7	8b 0d 00 00 00
	00		 mov	 ecx, DWORD PTR _atl__sp
  025dd	89 41 fc	 mov	 DWORD PTR [ecx-4], eax
$LN4@P_strlen:

; 1108 : }

  025e0	5d		 pop	 ebp
  025e1	c3		 ret	 0
_P_strlen ENDP
_TEXT	ENDS
EXTRN	_strcmp:PROC
; Function compile flags: /Odtp
_TEXT	SEGMENT
tv84 = -8						; size = 4
_i$ = -4						; size = 4
_P_strcmp PROC

; 1111 : {

  025f0	55		 push	 ebp
  025f1	8b ec		 mov	 ebp, esp
  025f3	83 ec 08	 sub	 esp, 8

; 1112 :     int i;
; 1113 : 
; 1114 :     Sl(2);

  025f6	a1 00 00 00 00	 mov	 eax, DWORD PTR _atl__sp
  025fb	2b 05 00 00 00
	00		 sub	 eax, DWORD PTR _atl__sk
  02601	c1 f8 02	 sar	 eax, 2
  02604	83 f8 02	 cmp	 eax, 2
  02607	7d 0a		 jge	 SHORT $LN5@P_strcmp
  02609	e8 00 00 00 00	 call	 _atl__Esu
  0260e	e9 ac 00 00 00	 jmp	 $LN6@P_strcmp
$LN5@P_strcmp:

; 1115 :     Hpc(S0);

  02613	8b 0d 00 00 00
	00		 mov	 ecx, DWORD PTR _atl__sp
  02619	8b 51 fc	 mov	 edx, DWORD PTR [ecx-4]
  0261c	3b 15 00 00 00
	00		 cmp	 edx, DWORD PTR _atl__hs
  02622	72 10		 jb	 SHORT $LN3@P_strcmp
  02624	a1 00 00 00 00	 mov	 eax, DWORD PTR _atl__sp
  02629	8b 48 fc	 mov	 ecx, DWORD PTR [eax-4]
  0262c	3b 0d 00 00 00
	00		 cmp	 ecx, DWORD PTR _atl__ht
  02632	72 0a		 jb	 SHORT $LN4@P_strcmp
$LN3@P_strcmp:
  02634	e8 00 00 00 00	 call	 _atl__Ebp
  02639	e9 81 00 00 00	 jmp	 $LN6@P_strcmp
$LN4@P_strcmp:

; 1116 :     Hpc(S1);

  0263e	8b 15 00 00 00
	00		 mov	 edx, DWORD PTR _atl__sp
  02644	8b 42 f8	 mov	 eax, DWORD PTR [edx-8]
  02647	3b 05 00 00 00
	00		 cmp	 eax, DWORD PTR _atl__hs
  0264d	72 11		 jb	 SHORT $LN1@P_strcmp
  0264f	8b 0d 00 00 00
	00		 mov	 ecx, DWORD PTR _atl__sp
  02655	8b 51 f8	 mov	 edx, DWORD PTR [ecx-8]
  02658	3b 15 00 00 00
	00		 cmp	 edx, DWORD PTR _atl__ht
  0265e	72 07		 jb	 SHORT $LN2@P_strcmp
$LN1@P_strcmp:
  02660	e8 00 00 00 00	 call	 _atl__Ebp
  02665	eb 58		 jmp	 SHORT $LN6@P_strcmp
$LN2@P_strcmp:

; 1117 :     i = strcmp((char *) S1, (char *) S0);

  02667	a1 00 00 00 00	 mov	 eax, DWORD PTR _atl__sp
  0266c	8b 48 fc	 mov	 ecx, DWORD PTR [eax-4]
  0266f	51		 push	 ecx
  02670	8b 15 00 00 00
	00		 mov	 edx, DWORD PTR _atl__sp
  02676	8b 42 f8	 mov	 eax, DWORD PTR [edx-8]
  02679	50		 push	 eax
  0267a	e8 00 00 00 00	 call	 _strcmp
  0267f	83 c4 08	 add	 esp, 8
  02682	89 45 fc	 mov	 DWORD PTR _i$[ebp], eax

; 1118 :     S1 = (i == 0) ? 0L : ((i > 0) ? 1L : -1L);

  02685	83 7d fc 00	 cmp	 DWORD PTR _i$[ebp], 0
  02689	75 09		 jne	 SHORT $LN8@P_strcmp
  0268b	c7 45 f8 00 00
	00 00		 mov	 DWORD PTR tv84[ebp], 0
  02692	eb 10		 jmp	 SHORT $LN9@P_strcmp
$LN8@P_strcmp:
  02694	33 c9		 xor	 ecx, ecx
  02696	83 7d fc 00	 cmp	 DWORD PTR _i$[ebp], 0
  0269a	0f 9f c1	 setg	 cl
  0269d	8d 4c 09 ff	 lea	 ecx, DWORD PTR [ecx+ecx-1]
  026a1	89 4d f8	 mov	 DWORD PTR tv84[ebp], ecx
$LN9@P_strcmp:
  026a4	8b 15 00 00 00
	00		 mov	 edx, DWORD PTR _atl__sp
  026aa	8b 45 f8	 mov	 eax, DWORD PTR tv84[ebp]
  026ad	89 42 f8	 mov	 DWORD PTR [edx-8], eax

; 1119 :     Pop;

  026b0	8b 0d 00 00 00
	00		 mov	 ecx, DWORD PTR _atl__sp
  026b6	83 e9 04	 sub	 ecx, 4
  026b9	89 0d 00 00 00
	00		 mov	 DWORD PTR _atl__sp, ecx
$LN6@P_strcmp:

; 1120 : }

  026bf	8b e5		 mov	 esp, ebp
  026c1	5d		 pop	 ebp
  026c2	c3		 ret	 0
_P_strcmp ENDP
; Function compile flags: /Odtp
_P_strchar PROC

; 1123 : {

  026d0	55		 push	 ebp
  026d1	8b ec		 mov	 ebp, esp

; 1124 :     Sl(2);

  026d3	a1 00 00 00 00	 mov	 eax, DWORD PTR _atl__sp
  026d8	2b 05 00 00 00
	00		 sub	 eax, DWORD PTR _atl__sk
  026de	c1 f8 02	 sar	 eax, 2
  026e1	83 f8 02	 cmp	 eax, 2
  026e4	7d 0a		 jge	 SHORT $LN5@P_strchar
  026e6	e8 00 00 00 00	 call	 _atl__Esu
  026eb	e9 84 00 00 00	 jmp	 $LN6@P_strchar
$LN5@P_strchar:

; 1125 :     Hpc(S0);

  026f0	8b 0d 00 00 00
	00		 mov	 ecx, DWORD PTR _atl__sp
  026f6	8b 51 fc	 mov	 edx, DWORD PTR [ecx-4]
  026f9	3b 15 00 00 00
	00		 cmp	 edx, DWORD PTR _atl__hs
  026ff	72 10		 jb	 SHORT $LN3@P_strchar
  02701	a1 00 00 00 00	 mov	 eax, DWORD PTR _atl__sp
  02706	8b 48 fc	 mov	 ecx, DWORD PTR [eax-4]
  02709	3b 0d 00 00 00
	00		 cmp	 ecx, DWORD PTR _atl__ht
  0270f	72 07		 jb	 SHORT $LN4@P_strchar
$LN3@P_strchar:
  02711	e8 00 00 00 00	 call	 _atl__Ebp
  02716	eb 5c		 jmp	 SHORT $LN6@P_strchar
$LN4@P_strchar:

; 1126 :     Hpc(S1);

  02718	8b 15 00 00 00
	00		 mov	 edx, DWORD PTR _atl__sp
  0271e	8b 42 f8	 mov	 eax, DWORD PTR [edx-8]
  02721	3b 05 00 00 00
	00		 cmp	 eax, DWORD PTR _atl__hs
  02727	72 11		 jb	 SHORT $LN1@P_strchar
  02729	8b 0d 00 00 00
	00		 mov	 ecx, DWORD PTR _atl__sp
  0272f	8b 51 f8	 mov	 edx, DWORD PTR [ecx-8]
  02732	3b 15 00 00 00
	00		 cmp	 edx, DWORD PTR _atl__ht
  02738	72 07		 jb	 SHORT $LN2@P_strchar
$LN1@P_strchar:
  0273a	e8 00 00 00 00	 call	 _atl__Ebp
  0273f	eb 33		 jmp	 SHORT $LN6@P_strchar
$LN2@P_strchar:

; 1127 :     S1 = (stackitem) strchr((char *) S1, *((char *) S0));

  02741	a1 00 00 00 00	 mov	 eax, DWORD PTR _atl__sp
  02746	8b 48 fc	 mov	 ecx, DWORD PTR [eax-4]
  02749	0f be 11	 movsx	 edx, BYTE PTR [ecx]
  0274c	52		 push	 edx
  0274d	a1 00 00 00 00	 mov	 eax, DWORD PTR _atl__sp
  02752	8b 48 f8	 mov	 ecx, DWORD PTR [eax-8]
  02755	51		 push	 ecx
  02756	e8 00 00 00 00	 call	 _strchr
  0275b	83 c4 08	 add	 esp, 8
  0275e	8b 15 00 00 00
	00		 mov	 edx, DWORD PTR _atl__sp
  02764	89 42 f8	 mov	 DWORD PTR [edx-8], eax

; 1128 :     Pop;

  02767	a1 00 00 00 00	 mov	 eax, DWORD PTR _atl__sp
  0276c	83 e8 04	 sub	 eax, 4
  0276f	a3 00 00 00 00	 mov	 DWORD PTR _atl__sp, eax
$LN6@P_strchar:

; 1129 : }

  02774	5d		 pop	 ebp
  02775	c3		 ret	 0
_P_strchar ENDP
; Function compile flags: /Odtp
_sl$ = -24						; size = 4
_ss$ = -20						; size = 4
_se$ = -16						; size = 4
_ds$ = -12						; size = 4
_sn$ = -8						; size = 4
_sp$ = -4						; size = 4
_P_substr PROC

; 1132 : {				      /* source start length/-1 dest -- */

  02780	55		 push	 ebp
  02781	8b ec		 mov	 ebp, esp
  02783	83 ec 18	 sub	 esp, 24			; 00000018H

; 1133 :     long sl, sn;
; 1134 :     char *ss, *sp, *se, *ds;
; 1135 : 
; 1136 :     Sl(4);

  02786	a1 00 00 00 00	 mov	 eax, DWORD PTR _atl__sp
  0278b	2b 05 00 00 00
	00		 sub	 eax, DWORD PTR _atl__sk
  02791	c1 f8 02	 sar	 eax, 2
  02794	83 f8 04	 cmp	 eax, 4
  02797	7d 0a		 jge	 SHORT $LN8@P_substr
  02799	e8 00 00 00 00	 call	 _atl__Esu
  0279e	e9 04 01 00 00	 jmp	 $LN9@P_substr
$LN8@P_substr:

; 1137 :     Hpc(S0);

  027a3	8b 0d 00 00 00
	00		 mov	 ecx, DWORD PTR _atl__sp
  027a9	8b 51 fc	 mov	 edx, DWORD PTR [ecx-4]
  027ac	3b 15 00 00 00
	00		 cmp	 edx, DWORD PTR _atl__hs
  027b2	72 10		 jb	 SHORT $LN6@P_substr
  027b4	a1 00 00 00 00	 mov	 eax, DWORD PTR _atl__sp
  027b9	8b 48 fc	 mov	 ecx, DWORD PTR [eax-4]
  027bc	3b 0d 00 00 00
	00		 cmp	 ecx, DWORD PTR _atl__ht
  027c2	72 0a		 jb	 SHORT $LN7@P_substr
$LN6@P_substr:
  027c4	e8 00 00 00 00	 call	 _atl__Ebp
  027c9	e9 d9 00 00 00	 jmp	 $LN9@P_substr
$LN7@P_substr:

; 1138 :     Hpc(S3);

  027ce	8b 15 00 00 00
	00		 mov	 edx, DWORD PTR _atl__sp
  027d4	8b 42 f0	 mov	 eax, DWORD PTR [edx-16]
  027d7	3b 05 00 00 00
	00		 cmp	 eax, DWORD PTR _atl__hs
  027dd	72 11		 jb	 SHORT $LN4@P_substr
  027df	8b 0d 00 00 00
	00		 mov	 ecx, DWORD PTR _atl__sp
  027e5	8b 51 f0	 mov	 edx, DWORD PTR [ecx-16]
  027e8	3b 15 00 00 00
	00		 cmp	 edx, DWORD PTR _atl__ht
  027ee	72 0a		 jb	 SHORT $LN5@P_substr
$LN4@P_substr:
  027f0	e8 00 00 00 00	 call	 _atl__Ebp
  027f5	e9 ad 00 00 00	 jmp	 $LN9@P_substr
$LN5@P_substr:

; 1139 :     sl = strlen(ss = ((char *) S3));

  027fa	a1 00 00 00 00	 mov	 eax, DWORD PTR _atl__sp
  027ff	8b 48 f0	 mov	 ecx, DWORD PTR [eax-16]
  02802	89 4d ec	 mov	 DWORD PTR _ss$[ebp], ecx
  02805	8b 55 ec	 mov	 edx, DWORD PTR _ss$[ebp]
  02808	52		 push	 edx
  02809	e8 00 00 00 00	 call	 _strlen
  0280e	83 c4 04	 add	 esp, 4
  02811	89 45 e8	 mov	 DWORD PTR _sl$[ebp], eax

; 1140 :     se = ss + sl;

  02814	8b 45 ec	 mov	 eax, DWORD PTR _ss$[ebp]
  02817	03 45 e8	 add	 eax, DWORD PTR _sl$[ebp]
  0281a	89 45 f0	 mov	 DWORD PTR _se$[ebp], eax

; 1141 :     sp = ((char *) S3) + S2;

  0281d	8b 0d 00 00 00
	00		 mov	 ecx, DWORD PTR _atl__sp
  02823	8b 51 f0	 mov	 edx, DWORD PTR [ecx-16]
  02826	a1 00 00 00 00	 mov	 eax, DWORD PTR _atl__sp
  0282b	03 50 f4	 add	 edx, DWORD PTR [eax-12]
  0282e	89 55 fc	 mov	 DWORD PTR _sp$[ebp], edx

; 1142 :     if ((sn = S1) < 0)

  02831	8b 0d 00 00 00
	00		 mov	 ecx, DWORD PTR _atl__sp
  02837	8b 51 f8	 mov	 edx, DWORD PTR [ecx-8]
  0283a	89 55 f8	 mov	 DWORD PTR _sn$[ebp], edx
  0283d	83 7d f8 00	 cmp	 DWORD PTR _sn$[ebp], 0
  02841	7d 07		 jge	 SHORT $LN3@P_substr

; 1143 : 	sn = 999999L;

  02843	c7 45 f8 3f 42
	0f 00		 mov	 DWORD PTR _sn$[ebp], 999999 ; 000f423fH
$LN3@P_substr:

; 1144 :     ds = (char *) S0;

  0284a	a1 00 00 00 00	 mov	 eax, DWORD PTR _atl__sp
  0284f	8b 48 fc	 mov	 ecx, DWORD PTR [eax-4]
  02852	89 4d f4	 mov	 DWORD PTR _ds$[ebp], ecx
$LN2@P_substr:

; 1145 :     while (sn-- && (sp < se))

  02855	8b 55 f8	 mov	 edx, DWORD PTR _sn$[ebp]
  02858	8b 45 f8	 mov	 eax, DWORD PTR _sn$[ebp]
  0285b	83 e8 01	 sub	 eax, 1
  0285e	89 45 f8	 mov	 DWORD PTR _sn$[ebp], eax
  02861	85 d2		 test	 edx, edx
  02863	74 26		 je	 SHORT $LN1@P_substr
  02865	8b 4d fc	 mov	 ecx, DWORD PTR _sp$[ebp]
  02868	3b 4d f0	 cmp	 ecx, DWORD PTR _se$[ebp]
  0286b	73 1e		 jae	 SHORT $LN1@P_substr

; 1146 : 	*ds++ = *sp++;

  0286d	8b 55 f4	 mov	 edx, DWORD PTR _ds$[ebp]
  02870	8b 45 fc	 mov	 eax, DWORD PTR _sp$[ebp]
  02873	8a 08		 mov	 cl, BYTE PTR [eax]
  02875	88 0a		 mov	 BYTE PTR [edx], cl
  02877	8b 55 f4	 mov	 edx, DWORD PTR _ds$[ebp]
  0287a	83 c2 01	 add	 edx, 1
  0287d	89 55 f4	 mov	 DWORD PTR _ds$[ebp], edx
  02880	8b 45 fc	 mov	 eax, DWORD PTR _sp$[ebp]
  02883	83 c0 01	 add	 eax, 1
  02886	89 45 fc	 mov	 DWORD PTR _sp$[ebp], eax
  02889	eb ca		 jmp	 SHORT $LN2@P_substr
$LN1@P_substr:

; 1147 :     *ds++ = EOS;

  0288b	8b 4d f4	 mov	 ecx, DWORD PTR _ds$[ebp]
  0288e	c6 01 00	 mov	 BYTE PTR [ecx], 0
  02891	8b 55 f4	 mov	 edx, DWORD PTR _ds$[ebp]
  02894	83 c2 01	 add	 edx, 1
  02897	89 55 f4	 mov	 DWORD PTR _ds$[ebp], edx

; 1148 :     Npop(4);

  0289a	a1 00 00 00 00	 mov	 eax, DWORD PTR _atl__sp
  0289f	83 e8 10	 sub	 eax, 16			; 00000010H
  028a2	a3 00 00 00 00	 mov	 DWORD PTR _atl__sp, eax
$LN9@P_substr:

; 1149 : }

  028a7	8b e5		 mov	 esp, ebp
  028a9	5d		 pop	 ebp
  028aa	c3		 ret	 0
_P_substr ENDP
_TEXT	ENDS
EXTRN	_sprintf:PROC
; Function compile flags: /Odtp
_TEXT	SEGMENT
_P_strform PROC

; 1152 : {                                     /* value "%ld" str -- */

  028b0	55		 push	 ebp
  028b1	8b ec		 mov	 ebp, esp

; 1153 :     Sl(2);

  028b3	a1 00 00 00 00	 mov	 eax, DWORD PTR _atl__sp
  028b8	2b 05 00 00 00
	00		 sub	 eax, DWORD PTR _atl__sk
  028be	c1 f8 02	 sar	 eax, 2
  028c1	83 f8 02	 cmp	 eax, 2
  028c4	7d 0a		 jge	 SHORT $LN5@P_strform
  028c6	e8 00 00 00 00	 call	 _atl__Esu
  028cb	e9 83 00 00 00	 jmp	 $LN6@P_strform
$LN5@P_strform:

; 1154 :     Hpc(S0);

  028d0	8b 0d 00 00 00
	00		 mov	 ecx, DWORD PTR _atl__sp
  028d6	8b 51 fc	 mov	 edx, DWORD PTR [ecx-4]
  028d9	3b 15 00 00 00
	00		 cmp	 edx, DWORD PTR _atl__hs
  028df	72 10		 jb	 SHORT $LN3@P_strform
  028e1	a1 00 00 00 00	 mov	 eax, DWORD PTR _atl__sp
  028e6	8b 48 fc	 mov	 ecx, DWORD PTR [eax-4]
  028e9	3b 0d 00 00 00
	00		 cmp	 ecx, DWORD PTR _atl__ht
  028ef	72 07		 jb	 SHORT $LN4@P_strform
$LN3@P_strform:
  028f1	e8 00 00 00 00	 call	 _atl__Ebp
  028f6	eb 5b		 jmp	 SHORT $LN6@P_strform
$LN4@P_strform:

; 1155 :     Hpc(S1);

  028f8	8b 15 00 00 00
	00		 mov	 edx, DWORD PTR _atl__sp
  028fe	8b 42 f8	 mov	 eax, DWORD PTR [edx-8]
  02901	3b 05 00 00 00
	00		 cmp	 eax, DWORD PTR _atl__hs
  02907	72 11		 jb	 SHORT $LN1@P_strform
  02909	8b 0d 00 00 00
	00		 mov	 ecx, DWORD PTR _atl__sp
  0290f	8b 51 f8	 mov	 edx, DWORD PTR [ecx-8]
  02912	3b 15 00 00 00
	00		 cmp	 edx, DWORD PTR _atl__ht
  02918	72 07		 jb	 SHORT $LN2@P_strform
$LN1@P_strform:
  0291a	e8 00 00 00 00	 call	 _atl__Ebp
  0291f	eb 32		 jmp	 SHORT $LN6@P_strform
$LN2@P_strform:

; 1156 :     V sprintf((char *) S0, (char *) S1, S2);

  02921	a1 00 00 00 00	 mov	 eax, DWORD PTR _atl__sp
  02926	8b 48 f4	 mov	 ecx, DWORD PTR [eax-12]
  02929	51		 push	 ecx
  0292a	8b 15 00 00 00
	00		 mov	 edx, DWORD PTR _atl__sp
  02930	8b 42 f8	 mov	 eax, DWORD PTR [edx-8]
  02933	50		 push	 eax
  02934	8b 0d 00 00 00
	00		 mov	 ecx, DWORD PTR _atl__sp
  0293a	8b 51 fc	 mov	 edx, DWORD PTR [ecx-4]
  0293d	52		 push	 edx
  0293e	e8 00 00 00 00	 call	 _sprintf
  02943	83 c4 0c	 add	 esp, 12			; 0000000cH

; 1157 :     Npop(3);

  02946	a1 00 00 00 00	 mov	 eax, DWORD PTR _atl__sp
  0294b	83 e8 0c	 sub	 eax, 12			; 0000000cH
  0294e	a3 00 00 00 00	 mov	 DWORD PTR _atl__sp, eax
$LN6@P_strform:

; 1158 : }

  02953	5d		 pop	 ebp
  02954	c3		 ret	 0
_P_strform ENDP
_TEXT	ENDS
EXTRN	__fltused:DWORD
; Function compile flags: /Odtp
_TEXT	SEGMENT
_P_fstrform PROC

; 1162 : {                                     /* rvalue "%6.2f" str -- */

  02960	55		 push	 ebp
  02961	8b ec		 mov	 ebp, esp

; 1163 :     Sl(4);

  02963	a1 00 00 00 00	 mov	 eax, DWORD PTR _atl__sp
  02968	2b 05 00 00 00
	00		 sub	 eax, DWORD PTR _atl__sk
  0296e	c1 f8 02	 sar	 eax, 2
  02971	83 f8 04	 cmp	 eax, 4
  02974	7d 0a		 jge	 SHORT $LN5@P_fstrform
  02976	e8 00 00 00 00	 call	 _atl__Esu
  0297b	e9 89 00 00 00	 jmp	 $LN6@P_fstrform
$LN5@P_fstrform:

; 1164 :     Hpc(S0);

  02980	8b 0d 00 00 00
	00		 mov	 ecx, DWORD PTR _atl__sp
  02986	8b 51 fc	 mov	 edx, DWORD PTR [ecx-4]
  02989	3b 15 00 00 00
	00		 cmp	 edx, DWORD PTR _atl__hs
  0298f	72 10		 jb	 SHORT $LN3@P_fstrform
  02991	a1 00 00 00 00	 mov	 eax, DWORD PTR _atl__sp
  02996	8b 48 fc	 mov	 ecx, DWORD PTR [eax-4]
  02999	3b 0d 00 00 00
	00		 cmp	 ecx, DWORD PTR _atl__ht
  0299f	72 07		 jb	 SHORT $LN4@P_fstrform
$LN3@P_fstrform:
  029a1	e8 00 00 00 00	 call	 _atl__Ebp
  029a6	eb 61		 jmp	 SHORT $LN6@P_fstrform
$LN4@P_fstrform:

; 1165 :     Hpc(S1);

  029a8	8b 15 00 00 00
	00		 mov	 edx, DWORD PTR _atl__sp
  029ae	8b 42 f8	 mov	 eax, DWORD PTR [edx-8]
  029b1	3b 05 00 00 00
	00		 cmp	 eax, DWORD PTR _atl__hs
  029b7	72 11		 jb	 SHORT $LN1@P_fstrform
  029b9	8b 0d 00 00 00
	00		 mov	 ecx, DWORD PTR _atl__sp
  029bf	8b 51 f8	 mov	 edx, DWORD PTR [ecx-8]
  029c2	3b 15 00 00 00
	00		 cmp	 edx, DWORD PTR _atl__ht
  029c8	72 07		 jb	 SHORT $LN2@P_fstrform
$LN1@P_fstrform:
  029ca	e8 00 00 00 00	 call	 _atl__Ebp
  029cf	eb 38		 jmp	 SHORT $LN6@P_fstrform
$LN2@P_fstrform:

; 1166 :     V sprintf((char *) S0, (char *) S1, REAL1);

  029d1	a1 00 00 00 00	 mov	 eax, DWORD PTR _atl__sp
  029d6	83 ec 08	 sub	 esp, 8
  029d9	dd 40 f0	 fld	 QWORD PTR [eax-16]
  029dc	dd 1c 24	 fstp	 QWORD PTR [esp]
  029df	8b 0d 00 00 00
	00		 mov	 ecx, DWORD PTR _atl__sp
  029e5	8b 51 f8	 mov	 edx, DWORD PTR [ecx-8]
  029e8	52		 push	 edx
  029e9	a1 00 00 00 00	 mov	 eax, DWORD PTR _atl__sp
  029ee	8b 48 fc	 mov	 ecx, DWORD PTR [eax-4]
  029f1	51		 push	 ecx
  029f2	e8 00 00 00 00	 call	 _sprintf
  029f7	83 c4 10	 add	 esp, 16			; 00000010H

; 1167 :     Npop(4);

  029fa	8b 15 00 00 00
	00		 mov	 edx, DWORD PTR _atl__sp
  02a00	83 ea 10	 sub	 edx, 16			; 00000010H
  02a03	89 15 00 00 00
	00		 mov	 DWORD PTR _atl__sp, edx
$LN6@P_fstrform:

; 1168 : }

  02a09	5d		 pop	 ebp
  02a0a	c3		 ret	 0
_P_fstrform ENDP
_TEXT	ENDS
EXTRN	_strtoul:PROC
; Function compile flags: /Odtp
_TEXT	SEGMENT
_eptr$ = -8						; size = 4
_is$ = -4						; size = 4
_P_strint PROC

; 1172 : {				      /* str -- endptr value */

  02a10	55		 push	 ebp
  02a11	8b ec		 mov	 ebp, esp
  02a13	83 ec 08	 sub	 esp, 8

; 1173 :     stackitem is;
; 1174 :     char *eptr;
; 1175 : 
; 1176 :     Sl(1);

  02a16	a1 00 00 00 00	 mov	 eax, DWORD PTR _atl__sp
  02a1b	2b 05 00 00 00
	00		 sub	 eax, DWORD PTR _atl__sk
  02a21	c1 f8 02	 sar	 eax, 2
  02a24	83 f8 01	 cmp	 eax, 1
  02a27	7d 0a		 jge	 SHORT $LN5@P_strint
  02a29	e8 00 00 00 00	 call	 _atl__Esu
  02a2e	e9 9d 00 00 00	 jmp	 $LN6@P_strint
$LN5@P_strint:

; 1177 :     So(1);

  02a33	8b 0d 00 00 00
	00		 mov	 ecx, DWORD PTR _atl__sp
  02a39	83 c1 04	 add	 ecx, 4
  02a3c	3b 0d 00 00 00
	00		 cmp	 ecx, DWORD PTR _atl__sx
  02a42	76 0f		 jbe	 SHORT $LN4@P_strint
  02a44	8b 15 00 00 00
	00		 mov	 edx, DWORD PTR _atl__sp
  02a4a	83 c2 04	 add	 edx, 4
  02a4d	89 15 00 00 00
	00		 mov	 DWORD PTR _atl__sx, edx
$LN4@P_strint:
  02a53	a1 00 00 00 00	 mov	 eax, DWORD PTR _atl__sp
  02a58	83 c0 04	 add	 eax, 4
  02a5b	3b 05 00 00 00
	00		 cmp	 eax, DWORD PTR _atl__st
  02a61	76 07		 jbe	 SHORT $LN3@P_strint
  02a63	e8 00 00 00 00	 call	 _atl__Eso
  02a68	eb 66		 jmp	 SHORT $LN6@P_strint
$LN3@P_strint:

; 1178 :     Hpc(S0);

  02a6a	8b 0d 00 00 00
	00		 mov	 ecx, DWORD PTR _atl__sp
  02a70	8b 51 fc	 mov	 edx, DWORD PTR [ecx-4]
  02a73	3b 15 00 00 00
	00		 cmp	 edx, DWORD PTR _atl__hs
  02a79	72 10		 jb	 SHORT $LN1@P_strint
  02a7b	a1 00 00 00 00	 mov	 eax, DWORD PTR _atl__sp
  02a80	8b 48 fc	 mov	 ecx, DWORD PTR [eax-4]
  02a83	3b 0d 00 00 00
	00		 cmp	 ecx, DWORD PTR _atl__ht
  02a89	72 07		 jb	 SHORT $LN2@P_strint
$LN1@P_strint:
  02a8b	e8 00 00 00 00	 call	 _atl__Ebp
  02a90	eb 3e		 jmp	 SHORT $LN6@P_strint
$LN2@P_strint:

; 1179 :     is = strtoul((char *) S0, &eptr, 0);

  02a92	6a 00		 push	 0
  02a94	8d 55 f8	 lea	 edx, DWORD PTR _eptr$[ebp]
  02a97	52		 push	 edx
  02a98	a1 00 00 00 00	 mov	 eax, DWORD PTR _atl__sp
  02a9d	8b 48 fc	 mov	 ecx, DWORD PTR [eax-4]
  02aa0	51		 push	 ecx
  02aa1	e8 00 00 00 00	 call	 _strtoul
  02aa6	83 c4 0c	 add	 esp, 12			; 0000000cH
  02aa9	89 45 fc	 mov	 DWORD PTR _is$[ebp], eax

; 1180 :     S0 = (stackitem) eptr;

  02aac	8b 15 00 00 00
	00		 mov	 edx, DWORD PTR _atl__sp
  02ab2	8b 45 f8	 mov	 eax, DWORD PTR _eptr$[ebp]
  02ab5	89 42 fc	 mov	 DWORD PTR [edx-4], eax

; 1181 :     Push = is;

  02ab8	8b 0d 00 00 00
	00		 mov	 ecx, DWORD PTR _atl__sp
  02abe	8b 55 fc	 mov	 edx, DWORD PTR _is$[ebp]
  02ac1	89 11		 mov	 DWORD PTR [ecx], edx
  02ac3	a1 00 00 00 00	 mov	 eax, DWORD PTR _atl__sp
  02ac8	83 c0 04	 add	 eax, 4
  02acb	a3 00 00 00 00	 mov	 DWORD PTR _atl__sp, eax
$LN6@P_strint:

; 1182 : }

  02ad0	8b e5		 mov	 esp, ebp
  02ad2	5d		 pop	 ebp
  02ad3	c3		 ret	 0
_P_strint ENDP
_TEXT	ENDS
PUBLIC	__$ArrayPad$
EXTRN	_strtod:PROC
EXTRN	___security_cookie:DWORD
EXTRN	@__security_check_cookie@4:PROC
; Function compile flags: /Odtp
_TEXT	SEGMENT
_eptr$ = -20						; size = 4
_fsu$ = -16						; size = 8
__$ArrayPad$ = -8					; size = 4
_i$ = -4						; size = 4
_P_strreal PROC

; 1186 : {				      /* str -- endptr value */

  02ae0	55		 push	 ebp
  02ae1	8b ec		 mov	 ebp, esp
  02ae3	83 ec 14	 sub	 esp, 20			; 00000014H
  02ae6	a1 00 00 00 00	 mov	 eax, DWORD PTR ___security_cookie
  02aeb	33 c5		 xor	 eax, ebp
  02aed	89 45 f8	 mov	 DWORD PTR __$ArrayPad$[ebp], eax

; 1187 :     int i;
; 1188 :     union {
; 1189 :     	atl_real fs;
; 1190 : 	stackitem fss[Realsize];
; 1191 :     } fsu;
; 1192 :     char *eptr;
; 1193 : 
; 1194 :     Sl(1);

  02af0	a1 00 00 00 00	 mov	 eax, DWORD PTR _atl__sp
  02af5	2b 05 00 00 00
	00		 sub	 eax, DWORD PTR _atl__sk
  02afb	c1 f8 02	 sar	 eax, 2
  02afe	83 f8 01	 cmp	 eax, 1
  02b01	7d 0a		 jge	 SHORT $LN8@P_strreal
  02b03	e8 00 00 00 00	 call	 _atl__Esu
  02b08	e9 be 00 00 00	 jmp	 $LN1@P_strreal
$LN8@P_strreal:

; 1195 :     So(2);

  02b0d	8b 0d 00 00 00
	00		 mov	 ecx, DWORD PTR _atl__sp
  02b13	83 c1 08	 add	 ecx, 8
  02b16	3b 0d 00 00 00
	00		 cmp	 ecx, DWORD PTR _atl__sx
  02b1c	76 0f		 jbe	 SHORT $LN7@P_strreal
  02b1e	8b 15 00 00 00
	00		 mov	 edx, DWORD PTR _atl__sp
  02b24	83 c2 08	 add	 edx, 8
  02b27	89 15 00 00 00
	00		 mov	 DWORD PTR _atl__sx, edx
$LN7@P_strreal:
  02b2d	a1 00 00 00 00	 mov	 eax, DWORD PTR _atl__sp
  02b32	83 c0 08	 add	 eax, 8
  02b35	3b 05 00 00 00
	00		 cmp	 eax, DWORD PTR _atl__st
  02b3b	76 0a		 jbe	 SHORT $LN6@P_strreal
  02b3d	e8 00 00 00 00	 call	 _atl__Eso
  02b42	e9 84 00 00 00	 jmp	 $LN1@P_strreal
$LN6@P_strreal:

; 1196 :     Hpc(S0);

  02b47	8b 0d 00 00 00
	00		 mov	 ecx, DWORD PTR _atl__sp
  02b4d	8b 51 fc	 mov	 edx, DWORD PTR [ecx-4]
  02b50	3b 15 00 00 00
	00		 cmp	 edx, DWORD PTR _atl__hs
  02b56	72 10		 jb	 SHORT $LN4@P_strreal
  02b58	a1 00 00 00 00	 mov	 eax, DWORD PTR _atl__sp
  02b5d	8b 48 fc	 mov	 ecx, DWORD PTR [eax-4]
  02b60	3b 0d 00 00 00
	00		 cmp	 ecx, DWORD PTR _atl__ht
  02b66	72 07		 jb	 SHORT $LN5@P_strreal
$LN4@P_strreal:
  02b68	e8 00 00 00 00	 call	 _atl__Ebp
  02b6d	eb 5c		 jmp	 SHORT $LN1@P_strreal
$LN5@P_strreal:

; 1197 :     fsu.fs = strtod((char *) S0, &eptr);

  02b6f	8d 55 ec	 lea	 edx, DWORD PTR _eptr$[ebp]
  02b72	52		 push	 edx
  02b73	a1 00 00 00 00	 mov	 eax, DWORD PTR _atl__sp
  02b78	8b 48 fc	 mov	 ecx, DWORD PTR [eax-4]
  02b7b	51		 push	 ecx
  02b7c	e8 00 00 00 00	 call	 _strtod
  02b81	83 c4 08	 add	 esp, 8
  02b84	dd 5d f0	 fstp	 QWORD PTR _fsu$[ebp]

; 1198 :     S0 = (stackitem) eptr;

  02b87	8b 15 00 00 00
	00		 mov	 edx, DWORD PTR _atl__sp
  02b8d	8b 45 ec	 mov	 eax, DWORD PTR _eptr$[ebp]
  02b90	89 42 fc	 mov	 DWORD PTR [edx-4], eax

; 1199 :     for (i = 0; i < Realsize; i++) {

  02b93	c7 45 fc 00 00
	00 00		 mov	 DWORD PTR _i$[ebp], 0
  02b9a	eb 09		 jmp	 SHORT $LN3@P_strreal
$LN2@P_strreal:
  02b9c	8b 4d fc	 mov	 ecx, DWORD PTR _i$[ebp]
  02b9f	83 c1 01	 add	 ecx, 1
  02ba2	89 4d fc	 mov	 DWORD PTR _i$[ebp], ecx
$LN3@P_strreal:
  02ba5	83 7d fc 02	 cmp	 DWORD PTR _i$[ebp], 2
  02ba9	73 20		 jae	 SHORT $LN1@P_strreal

; 1200 :     	Push = fsu.fss[i];

  02bab	8b 15 00 00 00
	00		 mov	 edx, DWORD PTR _atl__sp
  02bb1	8b 45 fc	 mov	 eax, DWORD PTR _i$[ebp]
  02bb4	8b 4c 85 f0	 mov	 ecx, DWORD PTR _fsu$[ebp+eax*4]
  02bb8	89 0a		 mov	 DWORD PTR [edx], ecx
  02bba	8b 15 00 00 00
	00		 mov	 edx, DWORD PTR _atl__sp
  02bc0	83 c2 04	 add	 edx, 4
  02bc3	89 15 00 00 00
	00		 mov	 DWORD PTR _atl__sp, edx

; 1201 :     }

  02bc9	eb d1		 jmp	 SHORT $LN2@P_strreal
$LN1@P_strreal:

; 1202 : }

  02bcb	8b 4d f8	 mov	 ecx, DWORD PTR __$ArrayPad$[ebp]
  02bce	33 cd		 xor	 ecx, ebp
  02bd0	e8 00 00 00 00	 call	 @__security_check_cookie@4
  02bd5	8b e5		 mov	 esp, ebp
  02bd7	5d		 pop	 ebp
  02bd8	c3		 ret	 0
_P_strreal ENDP
_TEXT	ENDS
EXTRN	_memcpy:PROC
; Function compile flags: /Odtp
_TEXT	SEGMENT
_tr$83513 = -16						; size = 8
_i$ = -4						; size = 4
_P_flit	PROC

; 1211 : {

  02be0	55		 push	 ebp
  02be1	8b ec		 mov	 ebp, esp
  02be3	83 ec 10	 sub	 esp, 16			; 00000010H

; 1212 :     int i;
; 1213 : 
; 1214 :     So(Realsize);

  02be6	a1 00 00 00 00	 mov	 eax, DWORD PTR _atl__sp
  02beb	83 c0 08	 add	 eax, 8
  02bee	3b 05 00 00 00
	00		 cmp	 eax, DWORD PTR _atl__sx
  02bf4	76 0f		 jbe	 SHORT $LN6@P_flit
  02bf6	8b 0d 00 00 00
	00		 mov	 ecx, DWORD PTR _atl__sp
  02bfc	83 c1 08	 add	 ecx, 8
  02bff	89 0d 00 00 00
	00		 mov	 DWORD PTR _atl__sx, ecx
$LN6@P_flit:
  02c05	8b 15 00 00 00
	00		 mov	 edx, DWORD PTR _atl__sp
  02c0b	83 c2 08	 add	 edx, 8
  02c0e	3b 15 00 00 00
	00		 cmp	 edx, DWORD PTR _atl__st
  02c14	76 07		 jbe	 SHORT $LN5@P_flit
  02c16	e8 00 00 00 00	 call	 _atl__Eso
  02c1b	eb 75		 jmp	 SHORT $LN1@P_flit
$LN5@P_flit:

; 1215 : #ifdef TRACE
; 1216 :     if (atl_trace) {

  02c1d	83 3d 00 00 00
	00 00		 cmp	 DWORD PTR _atl_trace, 0
  02c24	74 27		 je	 SHORT $LN4@P_flit

; 1217 : 	atl_real tr;
; 1218 : 
; 1219 : 	V memcpy((char *) &tr, (char *) ip, sizeof(atl_real));

  02c26	6a 08		 push	 8
  02c28	a1 00 00 00 00	 mov	 eax, DWORD PTR _atl__ip
  02c2d	50		 push	 eax
  02c2e	8d 4d f0	 lea	 ecx, DWORD PTR _tr$83513[ebp]
  02c31	51		 push	 ecx
  02c32	e8 00 00 00 00	 call	 _memcpy

; 1220 :         V printf("%g ", tr);

  02c37	83 c4 04	 add	 esp, 4
  02c3a	dd 45 f0	 fld	 QWORD PTR _tr$83513[ebp]
  02c3d	dd 1c 24	 fstp	 QWORD PTR [esp]
  02c40	68 00 00 00 00	 push	 OFFSET $SG83519
  02c45	e8 00 00 00 00	 call	 _printf
  02c4a	83 c4 0c	 add	 esp, 12			; 0000000cH
$LN4@P_flit:

; 1221 :     }
; 1222 : #endif /* TRACE */
; 1223 :     for (i = 0; i < Realsize; i++) {

  02c4d	c7 45 fc 00 00
	00 00		 mov	 DWORD PTR _i$[ebp], 0
  02c54	eb 09		 jmp	 SHORT $LN3@P_flit
$LN2@P_flit:
  02c56	8b 55 fc	 mov	 edx, DWORD PTR _i$[ebp]
  02c59	83 c2 01	 add	 edx, 1
  02c5c	89 55 fc	 mov	 DWORD PTR _i$[ebp], edx
$LN3@P_flit:
  02c5f	83 7d fc 02	 cmp	 DWORD PTR _i$[ebp], 2
  02c63	73 2d		 jae	 SHORT $LN1@P_flit

; 1224 : 	Push = (stackitem) *ip++;

  02c65	a1 00 00 00 00	 mov	 eax, DWORD PTR _atl__sp
  02c6a	8b 0d 00 00 00
	00		 mov	 ecx, DWORD PTR _atl__ip
  02c70	8b 11		 mov	 edx, DWORD PTR [ecx]
  02c72	89 10		 mov	 DWORD PTR [eax], edx
  02c74	a1 00 00 00 00	 mov	 eax, DWORD PTR _atl__sp
  02c79	83 c0 04	 add	 eax, 4
  02c7c	a3 00 00 00 00	 mov	 DWORD PTR _atl__sp, eax
  02c81	8b 0d 00 00 00
	00		 mov	 ecx, DWORD PTR _atl__ip
  02c87	83 c1 04	 add	 ecx, 4
  02c8a	89 0d 00 00 00
	00		 mov	 DWORD PTR _atl__ip, ecx

; 1225 :     }

  02c90	eb c4		 jmp	 SHORT $LN2@P_flit
$LN1@P_flit:

; 1226 : }

  02c92	8b e5		 mov	 esp, ebp
  02c94	5d		 pop	 ebp
  02c95	c3		 ret	 0
_P_flit	ENDP
; Function compile flags: /Odtp
_P_fplus PROC

; 1229 : {

  02ca0	55		 push	 ebp
  02ca1	8b ec		 mov	 ebp, esp

; 1230 :     Sl(2 * Realsize);

  02ca3	a1 00 00 00 00	 mov	 eax, DWORD PTR _atl__sp
  02ca8	2b 05 00 00 00
	00		 sub	 eax, DWORD PTR _atl__sk
  02cae	c1 f8 02	 sar	 eax, 2
  02cb1	83 f8 04	 cmp	 eax, 4
  02cb4	73 07		 jae	 SHORT $LN1@P_fplus
  02cb6	e8 00 00 00 00	 call	 _atl__Esu
  02cbb	eb 29		 jmp	 SHORT $LN2@P_fplus
$LN1@P_fplus:

; 1231 :     SREAL1(REAL1 + REAL0);

  02cbd	8b 0d 00 00 00
	00		 mov	 ecx, DWORD PTR _atl__sp
  02cc3	8b 15 00 00 00
	00		 mov	 edx, DWORD PTR _atl__sp
  02cc9	dd 41 f0	 fld	 QWORD PTR [ecx-16]
  02ccc	dc 42 f8	 fadd	 QWORD PTR [edx-8]
  02ccf	a1 00 00 00 00	 mov	 eax, DWORD PTR _atl__sp
  02cd4	dd 58 f0	 fstp	 QWORD PTR [eax-16]

; 1232 :     Realpop;

  02cd7	8b 0d 00 00 00
	00		 mov	 ecx, DWORD PTR _atl__sp
  02cdd	83 e9 08	 sub	 ecx, 8
  02ce0	89 0d 00 00 00
	00		 mov	 DWORD PTR _atl__sp, ecx
$LN2@P_fplus:

; 1233 : }

  02ce6	5d		 pop	 ebp
  02ce7	c3		 ret	 0
_P_fplus ENDP
; Function compile flags: /Odtp
_P_fminus PROC

; 1236 : {

  02cf0	55		 push	 ebp
  02cf1	8b ec		 mov	 ebp, esp

; 1237 :     Sl(2 * Realsize);

  02cf3	a1 00 00 00 00	 mov	 eax, DWORD PTR _atl__sp
  02cf8	2b 05 00 00 00
	00		 sub	 eax, DWORD PTR _atl__sk
  02cfe	c1 f8 02	 sar	 eax, 2
  02d01	83 f8 04	 cmp	 eax, 4
  02d04	73 07		 jae	 SHORT $LN1@P_fminus
  02d06	e8 00 00 00 00	 call	 _atl__Esu
  02d0b	eb 29		 jmp	 SHORT $LN2@P_fminus
$LN1@P_fminus:

; 1238 :     SREAL1(REAL1 - REAL0);

  02d0d	8b 0d 00 00 00
	00		 mov	 ecx, DWORD PTR _atl__sp
  02d13	8b 15 00 00 00
	00		 mov	 edx, DWORD PTR _atl__sp
  02d19	dd 41 f0	 fld	 QWORD PTR [ecx-16]
  02d1c	dc 62 f8	 fsub	 QWORD PTR [edx-8]
  02d1f	a1 00 00 00 00	 mov	 eax, DWORD PTR _atl__sp
  02d24	dd 58 f0	 fstp	 QWORD PTR [eax-16]

; 1239 :     Realpop;

  02d27	8b 0d 00 00 00
	00		 mov	 ecx, DWORD PTR _atl__sp
  02d2d	83 e9 08	 sub	 ecx, 8
  02d30	89 0d 00 00 00
	00		 mov	 DWORD PTR _atl__sp, ecx
$LN2@P_fminus:

; 1240 : }

  02d36	5d		 pop	 ebp
  02d37	c3		 ret	 0
_P_fminus ENDP
; Function compile flags: /Odtp
_P_ftimes PROC

; 1243 : {

  02d40	55		 push	 ebp
  02d41	8b ec		 mov	 ebp, esp

; 1244 :     Sl(2 * Realsize);

  02d43	a1 00 00 00 00	 mov	 eax, DWORD PTR _atl__sp
  02d48	2b 05 00 00 00
	00		 sub	 eax, DWORD PTR _atl__sk
  02d4e	c1 f8 02	 sar	 eax, 2
  02d51	83 f8 04	 cmp	 eax, 4
  02d54	73 07		 jae	 SHORT $LN1@P_ftimes
  02d56	e8 00 00 00 00	 call	 _atl__Esu
  02d5b	eb 29		 jmp	 SHORT $LN2@P_ftimes
$LN1@P_ftimes:

; 1245 :     SREAL1(REAL1 * REAL0);

  02d5d	8b 0d 00 00 00
	00		 mov	 ecx, DWORD PTR _atl__sp
  02d63	8b 15 00 00 00
	00		 mov	 edx, DWORD PTR _atl__sp
  02d69	dd 41 f0	 fld	 QWORD PTR [ecx-16]
  02d6c	dc 4a f8	 fmul	 QWORD PTR [edx-8]
  02d6f	a1 00 00 00 00	 mov	 eax, DWORD PTR _atl__sp
  02d74	dd 58 f0	 fstp	 QWORD PTR [eax-16]

; 1246 :     Realpop;

  02d77	8b 0d 00 00 00
	00		 mov	 ecx, DWORD PTR _atl__sp
  02d7d	83 e9 08	 sub	 ecx, 8
  02d80	89 0d 00 00 00
	00		 mov	 DWORD PTR _atl__sp, ecx
$LN2@P_ftimes:

; 1247 : }

  02d86	5d		 pop	 ebp
  02d87	c3		 ret	 0
_P_ftimes ENDP
_TEXT	ENDS
PUBLIC	__real@0000000000000000
;	COMDAT __real@0000000000000000
CONST	SEGMENT
__real@0000000000000000 DQ 00000000000000000r	; 0
; Function compile flags: /Odtp
CONST	ENDS
_TEXT	SEGMENT
_P_fdiv	PROC

; 1250 : {

  02d90	55		 push	 ebp
  02d91	8b ec		 mov	 ebp, esp

; 1251 :     Sl(2 * Realsize);

  02d93	a1 00 00 00 00	 mov	 eax, DWORD PTR _atl__sp
  02d98	2b 05 00 00 00
	00		 sub	 eax, DWORD PTR _atl__sk
  02d9e	c1 f8 02	 sar	 eax, 2
  02da1	83 f8 04	 cmp	 eax, 4
  02da4	73 07		 jae	 SHORT $LN2@P_fdiv
  02da6	e8 00 00 00 00	 call	 _atl__Esu
  02dab	eb 44		 jmp	 SHORT $LN3@P_fdiv
$LN2@P_fdiv:

; 1252 : #ifndef NOMEMCHECK
; 1253 :     if (REAL0 == 0.0) {

  02dad	8b 0d 00 00 00
	00		 mov	 ecx, DWORD PTR _atl__sp
  02db3	dd 41 f8	 fld	 QWORD PTR [ecx-8]
  02db6	d9 ee		 fldz
  02db8	da e9		 fucompp
  02dba	df e0		 fnstsw	 ax
  02dbc	f6 c4 44	 test	 ah, 68			; 00000044H
  02dbf	7a 07		 jp	 SHORT $LN1@P_fdiv

; 1254 : 	divzero();

  02dc1	e8 00 00 00 00	 call	 _divzero

; 1255 : 	return;

  02dc6	eb 29		 jmp	 SHORT $LN3@P_fdiv
$LN1@P_fdiv:

; 1256 :     }
; 1257 : #endif /* NOMEMCHECK */
; 1258 :     SREAL1(REAL1 / REAL0);

  02dc8	8b 15 00 00 00
	00		 mov	 edx, DWORD PTR _atl__sp
  02dce	a1 00 00 00 00	 mov	 eax, DWORD PTR _atl__sp
  02dd3	dd 42 f0	 fld	 QWORD PTR [edx-16]
  02dd6	dc 70 f8	 fdiv	 QWORD PTR [eax-8]
  02dd9	8b 0d 00 00 00
	00		 mov	 ecx, DWORD PTR _atl__sp
  02ddf	dd 59 f0	 fstp	 QWORD PTR [ecx-16]

; 1259 :     Realpop;

  02de2	8b 15 00 00 00
	00		 mov	 edx, DWORD PTR _atl__sp
  02de8	83 ea 08	 sub	 edx, 8
  02deb	89 15 00 00 00
	00		 mov	 DWORD PTR _atl__sp, edx
$LN3@P_fdiv:

; 1260 : }

  02df1	5d		 pop	 ebp
  02df2	c3		 ret	 0
_P_fdiv	ENDP
; Function compile flags: /Odtp
tv77 = -8						; size = 8
_P_fmin	PROC

; 1263 : {

  02e00	55		 push	 ebp
  02e01	8b ec		 mov	 ebp, esp
  02e03	83 ec 08	 sub	 esp, 8

; 1264 :     Sl(2 * Realsize);

  02e06	a1 00 00 00 00	 mov	 eax, DWORD PTR _atl__sp
  02e0b	2b 05 00 00 00
	00		 sub	 eax, DWORD PTR _atl__sk
  02e11	c1 f8 02	 sar	 eax, 2
  02e14	83 f8 04	 cmp	 eax, 4
  02e17	73 07		 jae	 SHORT $LN1@P_fmin
  02e19	e8 00 00 00 00	 call	 _atl__Esu
  02e1e	eb 4b		 jmp	 SHORT $LN2@P_fmin
$LN1@P_fmin:

; 1265 :     SREAL1(min(REAL1, REAL0));

  02e20	8b 0d 00 00 00
	00		 mov	 ecx, DWORD PTR _atl__sp
  02e26	dd 41 f0	 fld	 QWORD PTR [ecx-16]
  02e29	8b 15 00 00 00
	00		 mov	 edx, DWORD PTR _atl__sp
  02e2f	dc 5a f8	 fcomp	 QWORD PTR [edx-8]
  02e32	df e0		 fnstsw	 ax
  02e34	f6 c4 41	 test	 ah, 65			; 00000041H
  02e37	7a 0d		 jp	 SHORT $LN4@P_fmin
  02e39	a1 00 00 00 00	 mov	 eax, DWORD PTR _atl__sp
  02e3e	dd 40 f0	 fld	 QWORD PTR [eax-16]
  02e41	dd 5d f8	 fstp	 QWORD PTR tv77[ebp]
  02e44	eb 0c		 jmp	 SHORT $LN5@P_fmin
$LN4@P_fmin:
  02e46	8b 0d 00 00 00
	00		 mov	 ecx, DWORD PTR _atl__sp
  02e4c	dd 41 f8	 fld	 QWORD PTR [ecx-8]
  02e4f	dd 5d f8	 fstp	 QWORD PTR tv77[ebp]
$LN5@P_fmin:
  02e52	8b 15 00 00 00
	00		 mov	 edx, DWORD PTR _atl__sp
  02e58	dd 45 f8	 fld	 QWORD PTR tv77[ebp]
  02e5b	dd 5a f0	 fstp	 QWORD PTR [edx-16]

; 1266 :     Realpop;

  02e5e	a1 00 00 00 00	 mov	 eax, DWORD PTR _atl__sp
  02e63	83 e8 08	 sub	 eax, 8
  02e66	a3 00 00 00 00	 mov	 DWORD PTR _atl__sp, eax
$LN2@P_fmin:

; 1267 : }

  02e6b	8b e5		 mov	 esp, ebp
  02e6d	5d		 pop	 ebp
  02e6e	c3		 ret	 0
_P_fmin	ENDP
; Function compile flags: /Odtp
tv77 = -8						; size = 8
_P_fmax	PROC

; 1270 : {

  02e70	55		 push	 ebp
  02e71	8b ec		 mov	 ebp, esp
  02e73	83 ec 08	 sub	 esp, 8

; 1271 :     Sl(2 * Realsize);

  02e76	a1 00 00 00 00	 mov	 eax, DWORD PTR _atl__sp
  02e7b	2b 05 00 00 00
	00		 sub	 eax, DWORD PTR _atl__sk
  02e81	c1 f8 02	 sar	 eax, 2
  02e84	83 f8 04	 cmp	 eax, 4
  02e87	73 07		 jae	 SHORT $LN1@P_fmax
  02e89	e8 00 00 00 00	 call	 _atl__Esu
  02e8e	eb 4b		 jmp	 SHORT $LN2@P_fmax
$LN1@P_fmax:

; 1272 :     SREAL1(max(REAL1, REAL0));

  02e90	8b 0d 00 00 00
	00		 mov	 ecx, DWORD PTR _atl__sp
  02e96	dd 41 f0	 fld	 QWORD PTR [ecx-16]
  02e99	8b 15 00 00 00
	00		 mov	 edx, DWORD PTR _atl__sp
  02e9f	dc 5a f8	 fcomp	 QWORD PTR [edx-8]
  02ea2	df e0		 fnstsw	 ax
  02ea4	f6 c4 41	 test	 ah, 65			; 00000041H
  02ea7	75 0d		 jne	 SHORT $LN4@P_fmax
  02ea9	a1 00 00 00 00	 mov	 eax, DWORD PTR _atl__sp
  02eae	dd 40 f0	 fld	 QWORD PTR [eax-16]
  02eb1	dd 5d f8	 fstp	 QWORD PTR tv77[ebp]
  02eb4	eb 0c		 jmp	 SHORT $LN5@P_fmax
$LN4@P_fmax:
  02eb6	8b 0d 00 00 00
	00		 mov	 ecx, DWORD PTR _atl__sp
  02ebc	dd 41 f8	 fld	 QWORD PTR [ecx-8]
  02ebf	dd 5d f8	 fstp	 QWORD PTR tv77[ebp]
$LN5@P_fmax:
  02ec2	8b 15 00 00 00
	00		 mov	 edx, DWORD PTR _atl__sp
  02ec8	dd 45 f8	 fld	 QWORD PTR tv77[ebp]
  02ecb	dd 5a f0	 fstp	 QWORD PTR [edx-16]

; 1273 :     Realpop;

  02ece	a1 00 00 00 00	 mov	 eax, DWORD PTR _atl__sp
  02ed3	83 e8 08	 sub	 eax, 8
  02ed6	a3 00 00 00 00	 mov	 DWORD PTR _atl__sp, eax
$LN2@P_fmax:

; 1274 : }

  02edb	8b e5		 mov	 esp, ebp
  02edd	5d		 pop	 ebp
  02ede	c3		 ret	 0
_P_fmax	ENDP
; Function compile flags: /Odtp
_P_fneg PROC

; 1277 : {

  02ee0	55		 push	 ebp
  02ee1	8b ec		 mov	 ebp, esp

; 1278 :     Sl(Realsize);

  02ee3	a1 00 00 00 00	 mov	 eax, DWORD PTR _atl__sp
  02ee8	2b 05 00 00 00
	00		 sub	 eax, DWORD PTR _atl__sk
  02eee	c1 f8 02	 sar	 eax, 2
  02ef1	83 f8 02	 cmp	 eax, 2
  02ef4	73 07		 jae	 SHORT $LN1@P_fneg
  02ef6	e8 00 00 00 00	 call	 _atl__Esu
  02efb	eb 14		 jmp	 SHORT $LN2@P_fneg
$LN1@P_fneg:

; 1279 :     SREAL0(- REAL0);

  02efd	8b 0d 00 00 00
	00		 mov	 ecx, DWORD PTR _atl__sp
  02f03	dd 41 f8	 fld	 QWORD PTR [ecx-8]
  02f06	d9 e0		 fchs
  02f08	8b 15 00 00 00
	00		 mov	 edx, DWORD PTR _atl__sp
  02f0e	dd 5a f8	 fstp	 QWORD PTR [edx-8]
$LN2@P_fneg:

; 1280 : }

  02f11	5d		 pop	 ebp
  02f12	c3		 ret	 0
_P_fneg	ENDP
; Function compile flags: /Odtp
tv76 = -8						; size = 8
_P_fabs	PROC

; 1283 : {

  02f20	55		 push	 ebp
  02f21	8b ec		 mov	 ebp, esp
  02f23	83 ec 08	 sub	 esp, 8

; 1284 :     Sl(Realsize);

  02f26	a1 00 00 00 00	 mov	 eax, DWORD PTR _atl__sp
  02f2b	2b 05 00 00 00
	00		 sub	 eax, DWORD PTR _atl__sk
  02f31	c1 f8 02	 sar	 eax, 2
  02f34	83 f8 02	 cmp	 eax, 2
  02f37	73 07		 jae	 SHORT $LN1@P_fabs
  02f39	e8 00 00 00 00	 call	 _atl__Esu
  02f3e	eb 3d		 jmp	 SHORT $LN2@P_fabs
$LN1@P_fabs:

; 1285 :     SREAL0(abs(REAL0));

  02f40	8b 0d 00 00 00
	00		 mov	 ecx, DWORD PTR _atl__sp
  02f46	dd 41 f8	 fld	 QWORD PTR [ecx-8]
  02f49	dc 1d 00 00 00
	00		 fcomp	 QWORD PTR __real@0000000000000000
  02f4f	df e0		 fnstsw	 ax
  02f51	f6 c4 05	 test	 ah, 5
  02f54	7a 10		 jp	 SHORT $LN4@P_fabs
  02f56	8b 15 00 00 00
	00		 mov	 edx, DWORD PTR _atl__sp
  02f5c	dd 42 f8	 fld	 QWORD PTR [edx-8]
  02f5f	d9 e0		 fchs
  02f61	dd 5d f8	 fstp	 QWORD PTR tv76[ebp]
  02f64	eb 0b		 jmp	 SHORT $LN5@P_fabs
$LN4@P_fabs:
  02f66	a1 00 00 00 00	 mov	 eax, DWORD PTR _atl__sp
  02f6b	dd 40 f8	 fld	 QWORD PTR [eax-8]
  02f6e	dd 5d f8	 fstp	 QWORD PTR tv76[ebp]
$LN5@P_fabs:
  02f71	8b 0d 00 00 00
	00		 mov	 ecx, DWORD PTR _atl__sp
  02f77	dd 45 f8	 fld	 QWORD PTR tv76[ebp]
  02f7a	dd 59 f8	 fstp	 QWORD PTR [ecx-8]
$LN2@P_fabs:

; 1286 : }

  02f7d	8b e5		 mov	 esp, ebp
  02f7f	5d		 pop	 ebp
  02f80	c3		 ret	 0
_P_fabs	ENDP
; Function compile flags: /Odtp
tv70 = -8						; size = 4
_t$ = -4						; size = 4
_P_fequal PROC

; 1289 : {

  02f90	55		 push	 ebp
  02f91	8b ec		 mov	 ebp, esp
  02f93	83 ec 08	 sub	 esp, 8

; 1290 :     stackitem t;
; 1291 : 
; 1292 :     Sl(2 * Realsize);

  02f96	a1 00 00 00 00	 mov	 eax, DWORD PTR _atl__sp
  02f9b	2b 05 00 00 00
	00		 sub	 eax, DWORD PTR _atl__sk
  02fa1	c1 f8 02	 sar	 eax, 2
  02fa4	83 f8 04	 cmp	 eax, 4
  02fa7	73 07		 jae	 SHORT $LN1@P_fequal
  02fa9	e8 00 00 00 00	 call	 _atl__Esu
  02fae	eb 5a		 jmp	 SHORT $LN2@P_fequal
$LN1@P_fequal:

; 1293 :     t = (REAL1 == REAL0) ? Truth : Falsity;

  02fb0	8b 0d 00 00 00
	00		 mov	 ecx, DWORD PTR _atl__sp
  02fb6	8b 15 00 00 00
	00		 mov	 edx, DWORD PTR _atl__sp
  02fbc	dd 41 f0	 fld	 QWORD PTR [ecx-16]
  02fbf	dd 42 f8	 fld	 QWORD PTR [edx-8]
  02fc2	da e9		 fucompp
  02fc4	df e0		 fnstsw	 ax
  02fc6	f6 c4 44	 test	 ah, 68			; 00000044H
  02fc9	7a 09		 jp	 SHORT $LN4@P_fequal
  02fcb	c7 45 f8 ff ff
	ff ff		 mov	 DWORD PTR tv70[ebp], -1
  02fd2	eb 07		 jmp	 SHORT $LN5@P_fequal
$LN4@P_fequal:
  02fd4	c7 45 f8 00 00
	00 00		 mov	 DWORD PTR tv70[ebp], 0
$LN5@P_fequal:
  02fdb	8b 45 f8	 mov	 eax, DWORD PTR tv70[ebp]
  02fde	89 45 fc	 mov	 DWORD PTR _t$[ebp], eax

; 1294 :     Realpop2;

  02fe1	8b 0d 00 00 00
	00		 mov	 ecx, DWORD PTR _atl__sp
  02fe7	83 e9 10	 sub	 ecx, 16			; 00000010H
  02fea	89 0d 00 00 00
	00		 mov	 DWORD PTR _atl__sp, ecx

; 1295 :     Push = t;

  02ff0	8b 15 00 00 00
	00		 mov	 edx, DWORD PTR _atl__sp
  02ff6	8b 45 fc	 mov	 eax, DWORD PTR _t$[ebp]
  02ff9	89 02		 mov	 DWORD PTR [edx], eax
  02ffb	8b 0d 00 00 00
	00		 mov	 ecx, DWORD PTR _atl__sp
  03001	83 c1 04	 add	 ecx, 4
  03004	89 0d 00 00 00
	00		 mov	 DWORD PTR _atl__sp, ecx
$LN2@P_fequal:

; 1296 : }

  0300a	8b e5		 mov	 esp, ebp
  0300c	5d		 pop	 ebp
  0300d	c3		 ret	 0
_P_fequal ENDP
; Function compile flags: /Odtp
tv70 = -8						; size = 4
_t$ = -4						; size = 4
_P_funequal PROC

; 1299 : {

  03010	55		 push	 ebp
  03011	8b ec		 mov	 ebp, esp
  03013	83 ec 08	 sub	 esp, 8

; 1300 :     stackitem t;
; 1301 : 
; 1302 :     Sl(2 * Realsize);

  03016	a1 00 00 00 00	 mov	 eax, DWORD PTR _atl__sp
  0301b	2b 05 00 00 00
	00		 sub	 eax, DWORD PTR _atl__sk
  03021	c1 f8 02	 sar	 eax, 2
  03024	83 f8 04	 cmp	 eax, 4
  03027	73 07		 jae	 SHORT $LN1@P_funequal
  03029	e8 00 00 00 00	 call	 _atl__Esu
  0302e	eb 5a		 jmp	 SHORT $LN2@P_funequal
$LN1@P_funequal:

; 1303 :     t = (REAL1 != REAL0) ? Truth : Falsity;

  03030	8b 0d 00 00 00
	00		 mov	 ecx, DWORD PTR _atl__sp
  03036	8b 15 00 00 00
	00		 mov	 edx, DWORD PTR _atl__sp
  0303c	dd 41 f0	 fld	 QWORD PTR [ecx-16]
  0303f	dd 42 f8	 fld	 QWORD PTR [edx-8]
  03042	da e9		 fucompp
  03044	df e0		 fnstsw	 ax
  03046	f6 c4 44	 test	 ah, 68			; 00000044H
  03049	7b 09		 jnp	 SHORT $LN4@P_funequal
  0304b	c7 45 f8 ff ff
	ff ff		 mov	 DWORD PTR tv70[ebp], -1
  03052	eb 07		 jmp	 SHORT $LN5@P_funequal
$LN4@P_funequal:
  03054	c7 45 f8 00 00
	00 00		 mov	 DWORD PTR tv70[ebp], 0
$LN5@P_funequal:
  0305b	8b 45 f8	 mov	 eax, DWORD PTR tv70[ebp]
  0305e	89 45 fc	 mov	 DWORD PTR _t$[ebp], eax

; 1304 :     Realpop2;

  03061	8b 0d 00 00 00
	00		 mov	 ecx, DWORD PTR _atl__sp
  03067	83 e9 10	 sub	 ecx, 16			; 00000010H
  0306a	89 0d 00 00 00
	00		 mov	 DWORD PTR _atl__sp, ecx

; 1305 :     Push = t;

  03070	8b 15 00 00 00
	00		 mov	 edx, DWORD PTR _atl__sp
  03076	8b 45 fc	 mov	 eax, DWORD PTR _t$[ebp]
  03079	89 02		 mov	 DWORD PTR [edx], eax
  0307b	8b 0d 00 00 00
	00		 mov	 ecx, DWORD PTR _atl__sp
  03081	83 c1 04	 add	 ecx, 4
  03084	89 0d 00 00 00
	00		 mov	 DWORD PTR _atl__sp, ecx
$LN2@P_funequal:

; 1306 : }

  0308a	8b e5		 mov	 esp, ebp
  0308c	5d		 pop	 ebp
  0308d	c3		 ret	 0
_P_funequal ENDP
; Function compile flags: /Odtp
tv70 = -8						; size = 4
_t$ = -4						; size = 4
_P_fgtr	PROC

; 1309 : {

  03090	55		 push	 ebp
  03091	8b ec		 mov	 ebp, esp
  03093	83 ec 08	 sub	 esp, 8

; 1310 :     stackitem t;
; 1311 : 
; 1312 :     Sl(2 * Realsize);

  03096	a1 00 00 00 00	 mov	 eax, DWORD PTR _atl__sp
  0309b	2b 05 00 00 00
	00		 sub	 eax, DWORD PTR _atl__sk
  030a1	c1 f8 02	 sar	 eax, 2
  030a4	83 f8 04	 cmp	 eax, 4
  030a7	73 07		 jae	 SHORT $LN1@P_fgtr
  030a9	e8 00 00 00 00	 call	 _atl__Esu
  030ae	eb 58		 jmp	 SHORT $LN2@P_fgtr
$LN1@P_fgtr:

; 1313 :     t = (REAL1 > REAL0) ? Truth : Falsity;

  030b0	8b 0d 00 00 00
	00		 mov	 ecx, DWORD PTR _atl__sp
  030b6	8b 15 00 00 00
	00		 mov	 edx, DWORD PTR _atl__sp
  030bc	dd 42 f8	 fld	 QWORD PTR [edx-8]
  030bf	dc 59 f0	 fcomp	 QWORD PTR [ecx-16]
  030c2	df e0		 fnstsw	 ax
  030c4	f6 c4 05	 test	 ah, 5
  030c7	7a 09		 jp	 SHORT $LN4@P_fgtr
  030c9	c7 45 f8 ff ff
	ff ff		 mov	 DWORD PTR tv70[ebp], -1
  030d0	eb 07		 jmp	 SHORT $LN5@P_fgtr
$LN4@P_fgtr:
  030d2	c7 45 f8 00 00
	00 00		 mov	 DWORD PTR tv70[ebp], 0
$LN5@P_fgtr:
  030d9	8b 45 f8	 mov	 eax, DWORD PTR tv70[ebp]
  030dc	89 45 fc	 mov	 DWORD PTR _t$[ebp], eax

; 1314 :     Realpop2;

  030df	8b 0d 00 00 00
	00		 mov	 ecx, DWORD PTR _atl__sp
  030e5	83 e9 10	 sub	 ecx, 16			; 00000010H
  030e8	89 0d 00 00 00
	00		 mov	 DWORD PTR _atl__sp, ecx

; 1315 :     Push = t;

  030ee	8b 15 00 00 00
	00		 mov	 edx, DWORD PTR _atl__sp
  030f4	8b 45 fc	 mov	 eax, DWORD PTR _t$[ebp]
  030f7	89 02		 mov	 DWORD PTR [edx], eax
  030f9	8b 0d 00 00 00
	00		 mov	 ecx, DWORD PTR _atl__sp
  030ff	83 c1 04	 add	 ecx, 4
  03102	89 0d 00 00 00
	00		 mov	 DWORD PTR _atl__sp, ecx
$LN2@P_fgtr:

; 1316 : }

  03108	8b e5		 mov	 esp, ebp
  0310a	5d		 pop	 ebp
  0310b	c3		 ret	 0
_P_fgtr	ENDP
; Function compile flags: /Odtp
tv70 = -8						; size = 4
_t$ = -4						; size = 4
_P_flss	PROC

; 1319 : {

  03110	55		 push	 ebp
  03111	8b ec		 mov	 ebp, esp
  03113	83 ec 08	 sub	 esp, 8

; 1320 :     stackitem t;
; 1321 : 
; 1322 :     Sl(2 * Realsize);

  03116	a1 00 00 00 00	 mov	 eax, DWORD PTR _atl__sp
  0311b	2b 05 00 00 00
	00		 sub	 eax, DWORD PTR _atl__sk
  03121	c1 f8 02	 sar	 eax, 2
  03124	83 f8 04	 cmp	 eax, 4
  03127	73 07		 jae	 SHORT $LN1@P_flss
  03129	e8 00 00 00 00	 call	 _atl__Esu
  0312e	eb 58		 jmp	 SHORT $LN2@P_flss
$LN1@P_flss:

; 1323 :     t = (REAL1 < REAL0) ? Truth : Falsity;

  03130	8b 0d 00 00 00
	00		 mov	 ecx, DWORD PTR _atl__sp
  03136	8b 15 00 00 00
	00		 mov	 edx, DWORD PTR _atl__sp
  0313c	dd 42 f8	 fld	 QWORD PTR [edx-8]
  0313f	dc 59 f0	 fcomp	 QWORD PTR [ecx-16]
  03142	df e0		 fnstsw	 ax
  03144	f6 c4 41	 test	 ah, 65			; 00000041H
  03147	75 09		 jne	 SHORT $LN4@P_flss
  03149	c7 45 f8 ff ff
	ff ff		 mov	 DWORD PTR tv70[ebp], -1
  03150	eb 07		 jmp	 SHORT $LN5@P_flss
$LN4@P_flss:
  03152	c7 45 f8 00 00
	00 00		 mov	 DWORD PTR tv70[ebp], 0
$LN5@P_flss:
  03159	8b 45 f8	 mov	 eax, DWORD PTR tv70[ebp]
  0315c	89 45 fc	 mov	 DWORD PTR _t$[ebp], eax

; 1324 :     Realpop2;

  0315f	8b 0d 00 00 00
	00		 mov	 ecx, DWORD PTR _atl__sp
  03165	83 e9 10	 sub	 ecx, 16			; 00000010H
  03168	89 0d 00 00 00
	00		 mov	 DWORD PTR _atl__sp, ecx

; 1325 :     Push = t;

  0316e	8b 15 00 00 00
	00		 mov	 edx, DWORD PTR _atl__sp
  03174	8b 45 fc	 mov	 eax, DWORD PTR _t$[ebp]
  03177	89 02		 mov	 DWORD PTR [edx], eax
  03179	8b 0d 00 00 00
	00		 mov	 ecx, DWORD PTR _atl__sp
  0317f	83 c1 04	 add	 ecx, 4
  03182	89 0d 00 00 00
	00		 mov	 DWORD PTR _atl__sp, ecx
$LN2@P_flss:

; 1326 : }

  03188	8b e5		 mov	 esp, ebp
  0318a	5d		 pop	 ebp
  0318b	c3		 ret	 0
_P_flss	ENDP
; Function compile flags: /Odtp
tv70 = -8						; size = 4
_t$ = -4						; size = 4
_P_fgeq	PROC

; 1329 : {

  03190	55		 push	 ebp
  03191	8b ec		 mov	 ebp, esp
  03193	83 ec 08	 sub	 esp, 8

; 1330 :     stackitem t;
; 1331 : 
; 1332 :     Sl(2 * Realsize);

  03196	a1 00 00 00 00	 mov	 eax, DWORD PTR _atl__sp
  0319b	2b 05 00 00 00
	00		 sub	 eax, DWORD PTR _atl__sk
  031a1	c1 f8 02	 sar	 eax, 2
  031a4	83 f8 04	 cmp	 eax, 4
  031a7	73 07		 jae	 SHORT $LN1@P_fgeq
  031a9	e8 00 00 00 00	 call	 _atl__Esu
  031ae	eb 58		 jmp	 SHORT $LN2@P_fgeq
$LN1@P_fgeq:

; 1333 :     t = (REAL1 >= REAL0) ? Truth : Falsity;

  031b0	8b 0d 00 00 00
	00		 mov	 ecx, DWORD PTR _atl__sp
  031b6	8b 15 00 00 00
	00		 mov	 edx, DWORD PTR _atl__sp
  031bc	dd 42 f8	 fld	 QWORD PTR [edx-8]
  031bf	dc 59 f0	 fcomp	 QWORD PTR [ecx-16]
  031c2	df e0		 fnstsw	 ax
  031c4	f6 c4 41	 test	 ah, 65			; 00000041H
  031c7	7a 09		 jp	 SHORT $LN4@P_fgeq
  031c9	c7 45 f8 ff ff
	ff ff		 mov	 DWORD PTR tv70[ebp], -1
  031d0	eb 07		 jmp	 SHORT $LN5@P_fgeq
$LN4@P_fgeq:
  031d2	c7 45 f8 00 00
	00 00		 mov	 DWORD PTR tv70[ebp], 0
$LN5@P_fgeq:
  031d9	8b 45 f8	 mov	 eax, DWORD PTR tv70[ebp]
  031dc	89 45 fc	 mov	 DWORD PTR _t$[ebp], eax

; 1334 :     Realpop2;

  031df	8b 0d 00 00 00
	00		 mov	 ecx, DWORD PTR _atl__sp
  031e5	83 e9 10	 sub	 ecx, 16			; 00000010H
  031e8	89 0d 00 00 00
	00		 mov	 DWORD PTR _atl__sp, ecx

; 1335 :     Push = t;

  031ee	8b 15 00 00 00
	00		 mov	 edx, DWORD PTR _atl__sp
  031f4	8b 45 fc	 mov	 eax, DWORD PTR _t$[ebp]
  031f7	89 02		 mov	 DWORD PTR [edx], eax
  031f9	8b 0d 00 00 00
	00		 mov	 ecx, DWORD PTR _atl__sp
  031ff	83 c1 04	 add	 ecx, 4
  03202	89 0d 00 00 00
	00		 mov	 DWORD PTR _atl__sp, ecx
$LN2@P_fgeq:

; 1336 : }

  03208	8b e5		 mov	 esp, ebp
  0320a	5d		 pop	 ebp
  0320b	c3		 ret	 0
_P_fgeq	ENDP
; Function compile flags: /Odtp
tv70 = -8						; size = 4
_t$ = -4						; size = 4
_P_fleq	PROC

; 1339 : {

  03210	55		 push	 ebp
  03211	8b ec		 mov	 ebp, esp
  03213	83 ec 08	 sub	 esp, 8

; 1340 :     stackitem t;
; 1341 : 
; 1342 :     Sl(2 * Realsize);

  03216	a1 00 00 00 00	 mov	 eax, DWORD PTR _atl__sp
  0321b	2b 05 00 00 00
	00		 sub	 eax, DWORD PTR _atl__sk
  03221	c1 f8 02	 sar	 eax, 2
  03224	83 f8 04	 cmp	 eax, 4
  03227	73 07		 jae	 SHORT $LN1@P_fleq
  03229	e8 00 00 00 00	 call	 _atl__Esu
  0322e	eb 58		 jmp	 SHORT $LN2@P_fleq
$LN1@P_fleq:

; 1343 :     t = (REAL1 <= REAL0) ? Truth : Falsity;

  03230	8b 0d 00 00 00
	00		 mov	 ecx, DWORD PTR _atl__sp
  03236	8b 15 00 00 00
	00		 mov	 edx, DWORD PTR _atl__sp
  0323c	dd 42 f8	 fld	 QWORD PTR [edx-8]
  0323f	dc 59 f0	 fcomp	 QWORD PTR [ecx-16]
  03242	df e0		 fnstsw	 ax
  03244	f6 c4 01	 test	 ah, 1
  03247	75 09		 jne	 SHORT $LN4@P_fleq
  03249	c7 45 f8 ff ff
	ff ff		 mov	 DWORD PTR tv70[ebp], -1
  03250	eb 07		 jmp	 SHORT $LN5@P_fleq
$LN4@P_fleq:
  03252	c7 45 f8 00 00
	00 00		 mov	 DWORD PTR tv70[ebp], 0
$LN5@P_fleq:
  03259	8b 45 f8	 mov	 eax, DWORD PTR tv70[ebp]
  0325c	89 45 fc	 mov	 DWORD PTR _t$[ebp], eax

; 1344 :     Realpop2;

  0325f	8b 0d 00 00 00
	00		 mov	 ecx, DWORD PTR _atl__sp
  03265	83 e9 10	 sub	 ecx, 16			; 00000010H
  03268	89 0d 00 00 00
	00		 mov	 DWORD PTR _atl__sp, ecx

; 1345 :     Push = t;

  0326e	8b 15 00 00 00
	00		 mov	 edx, DWORD PTR _atl__sp
  03274	8b 45 fc	 mov	 eax, DWORD PTR _t$[ebp]
  03277	89 02		 mov	 DWORD PTR [edx], eax
  03279	8b 0d 00 00 00
	00		 mov	 ecx, DWORD PTR _atl__sp
  0327f	83 c1 04	 add	 ecx, 4
  03282	89 0d 00 00 00
	00		 mov	 DWORD PTR _atl__sp, ecx
$LN2@P_fleq:

; 1346 : }

  03288	8b e5		 mov	 esp, ebp
  0328a	5d		 pop	 ebp
  0328b	c3		 ret	 0
_P_fleq	ENDP
; Function compile flags: /Odtp
_P_fdot PROC

; 1349 : {

  03290	55		 push	 ebp
  03291	8b ec		 mov	 ebp, esp

; 1350 :     Sl(Realsize);

  03293	a1 00 00 00 00	 mov	 eax, DWORD PTR _atl__sp
  03298	2b 05 00 00 00
	00		 sub	 eax, DWORD PTR _atl__sk
  0329e	c1 f8 02	 sar	 eax, 2
  032a1	83 f8 02	 cmp	 eax, 2
  032a4	73 07		 jae	 SHORT $LN1@P_fdot
  032a6	e8 00 00 00 00	 call	 _atl__Esu
  032ab	eb 2b		 jmp	 SHORT $LN2@P_fdot
$LN1@P_fdot:

; 1351 :     /* V printf("%g ", REAL0); */
; 1352 : 	V printf("%.16f ", REAL0); /* precision 16 */

  032ad	8b 0d 00 00 00
	00		 mov	 ecx, DWORD PTR _atl__sp
  032b3	83 ec 08	 sub	 esp, 8
  032b6	dd 41 f8	 fld	 QWORD PTR [ecx-8]
  032b9	dd 1c 24	 fstp	 QWORD PTR [esp]
  032bc	68 00 00 00 00	 push	 OFFSET $SG83675
  032c1	e8 00 00 00 00	 call	 _printf
  032c6	83 c4 0c	 add	 esp, 12			; 0000000cH

; 1353 : 	
; 1354 : 	
; 1355 :     Realpop;

  032c9	8b 15 00 00 00
	00		 mov	 edx, DWORD PTR _atl__sp
  032cf	83 ea 08	 sub	 edx, 8
  032d2	89 15 00 00 00
	00		 mov	 DWORD PTR _atl__sp, edx
$LN2@P_fdot:

; 1356 : }

  032d8	5d		 pop	 ebp
  032d9	c3		 ret	 0
_P_fdot	ENDP
; Function compile flags: /Odtp
_r$ = -8						; size = 8
_P_float PROC

; 1359 : {

  032e0	55		 push	 ebp
  032e1	8b ec		 mov	 ebp, esp
  032e3	83 ec 08	 sub	 esp, 8

; 1360 :     atl_real r;
; 1361 : 
; 1362 :     Sl(1)

  032e6	a1 00 00 00 00	 mov	 eax, DWORD PTR _atl__sp
  032eb	2b 05 00 00 00
	00		 sub	 eax, DWORD PTR _atl__sk
  032f1	c1 f8 02	 sar	 eax, 2
  032f4	83 f8 01	 cmp	 eax, 1
  032f7	7d 07		 jge	 SHORT $LN3@P_float
  032f9	e8 00 00 00 00	 call	 _atl__Esu
  032fe	eb 5d		 jmp	 SHORT $LN4@P_float
$LN3@P_float:

; 1363 :     So(Realsize - 1);

  03300	8b 0d 00 00 00
	00		 mov	 ecx, DWORD PTR _atl__sp
  03306	83 c1 04	 add	 ecx, 4
  03309	3b 0d 00 00 00
	00		 cmp	 ecx, DWORD PTR _atl__sx
  0330f	76 0f		 jbe	 SHORT $LN2@P_float
  03311	8b 15 00 00 00
	00		 mov	 edx, DWORD PTR _atl__sp
  03317	83 c2 04	 add	 edx, 4
  0331a	89 15 00 00 00
	00		 mov	 DWORD PTR _atl__sx, edx
$LN2@P_float:
  03320	a1 00 00 00 00	 mov	 eax, DWORD PTR _atl__sp
  03325	83 c0 04	 add	 eax, 4
  03328	3b 05 00 00 00
	00		 cmp	 eax, DWORD PTR _atl__st
  0332e	76 07		 jbe	 SHORT $LN1@P_float
  03330	e8 00 00 00 00	 call	 _atl__Eso
  03335	eb 26		 jmp	 SHORT $LN4@P_float
$LN1@P_float:

; 1364 :     r = S0;

  03337	8b 0d 00 00 00
	00		 mov	 ecx, DWORD PTR _atl__sp
  0333d	db 41 fc	 fild	 DWORD PTR [ecx-4]
  03340	dd 5d f8	 fstp	 QWORD PTR _r$[ebp]

; 1365 :     stk += Realsize - 1;

  03343	8b 15 00 00 00
	00		 mov	 edx, DWORD PTR _atl__sp
  03349	83 c2 04	 add	 edx, 4
  0334c	89 15 00 00 00
	00		 mov	 DWORD PTR _atl__sp, edx

; 1366 :     SREAL0(r);

  03352	a1 00 00 00 00	 mov	 eax, DWORD PTR _atl__sp
  03357	dd 45 f8	 fld	 QWORD PTR _r$[ebp]
  0335a	dd 58 f8	 fstp	 QWORD PTR [eax-8]
$LN4@P_float:

; 1367 : }

  0335d	8b e5		 mov	 esp, ebp
  0335f	5d		 pop	 ebp
  03360	c3		 ret	 0
_P_float ENDP
_TEXT	ENDS
EXTRN	__ftol2_sse:PROC
; Function compile flags: /Odtp
_TEXT	SEGMENT
_i$ = -4						; size = 4
_P_fix	PROC

; 1370 : {

  03370	55		 push	 ebp
  03371	8b ec		 mov	 ebp, esp
  03373	51		 push	 ecx

; 1371 :     stackitem i;
; 1372 : 
; 1373 :     Sl(Realsize);

  03374	a1 00 00 00 00	 mov	 eax, DWORD PTR _atl__sp
  03379	2b 05 00 00 00
	00		 sub	 eax, DWORD PTR _atl__sk
  0337f	c1 f8 02	 sar	 eax, 2
  03382	83 f8 02	 cmp	 eax, 2
  03385	73 07		 jae	 SHORT $LN1@P_fix
  03387	e8 00 00 00 00	 call	 _atl__Esu
  0338c	eb 39		 jmp	 SHORT $LN2@P_fix
$LN1@P_fix:

; 1374 :     i = (int) REAL0;

  0338e	8b 0d 00 00 00
	00		 mov	 ecx, DWORD PTR _atl__sp
  03394	dd 41 f8	 fld	 QWORD PTR [ecx-8]
  03397	e8 00 00 00 00	 call	 __ftol2_sse
  0339c	89 45 fc	 mov	 DWORD PTR _i$[ebp], eax

; 1375 :     Realpop;

  0339f	8b 15 00 00 00
	00		 mov	 edx, DWORD PTR _atl__sp
  033a5	83 ea 08	 sub	 edx, 8
  033a8	89 15 00 00 00
	00		 mov	 DWORD PTR _atl__sp, edx

; 1376 :     Push = i;

  033ae	a1 00 00 00 00	 mov	 eax, DWORD PTR _atl__sp
  033b3	8b 4d fc	 mov	 ecx, DWORD PTR _i$[ebp]
  033b6	89 08		 mov	 DWORD PTR [eax], ecx
  033b8	8b 15 00 00 00
	00		 mov	 edx, DWORD PTR _atl__sp
  033be	83 c2 04	 add	 edx, 4
  033c1	89 15 00 00 00
	00		 mov	 DWORD PTR _atl__sp, edx
$LN2@P_fix:

; 1377 : }

  033c7	8b e5		 mov	 esp, ebp
  033c9	5d		 pop	 ebp
  033ca	c3		 ret	 0
_P_fix	ENDP
_TEXT	ENDS
EXTRN	_acos:PROC
; Function compile flags: /Odtp
_TEXT	SEGMENT
_P_acos	PROC

; 1384 : {

  033d0	55		 push	 ebp
  033d1	8b ec		 mov	 ebp, esp

; 1385 :     Mathfunc(acos);

  033d3	a1 00 00 00 00	 mov	 eax, DWORD PTR _atl__sp
  033d8	2b 05 00 00 00
	00		 sub	 eax, DWORD PTR _atl__sk
  033de	c1 f8 02	 sar	 eax, 2
  033e1	83 f8 02	 cmp	 eax, 2
  033e4	73 07		 jae	 SHORT $LN1@P_acos
  033e6	e8 00 00 00 00	 call	 _atl__Esu
  033eb	eb 20		 jmp	 SHORT $LN2@P_acos
$LN1@P_acos:
  033ed	8b 0d 00 00 00
	00		 mov	 ecx, DWORD PTR _atl__sp
  033f3	83 ec 08	 sub	 esp, 8
  033f6	dd 41 f8	 fld	 QWORD PTR [ecx-8]
  033f9	dd 1c 24	 fstp	 QWORD PTR [esp]
  033fc	e8 00 00 00 00	 call	 _acos
  03401	83 c4 08	 add	 esp, 8
  03404	8b 15 00 00 00
	00		 mov	 edx, DWORD PTR _atl__sp
  0340a	dd 5a f8	 fstp	 QWORD PTR [edx-8]
$LN2@P_acos:

; 1386 : }

  0340d	5d		 pop	 ebp
  0340e	c3		 ret	 0
_P_acos	ENDP
_TEXT	ENDS
EXTRN	_asin:PROC
; Function compile flags: /Odtp
_TEXT	SEGMENT
_P_asin	PROC

; 1389 : {

  03410	55		 push	 ebp
  03411	8b ec		 mov	 ebp, esp

; 1390 :     Mathfunc(asin);

  03413	a1 00 00 00 00	 mov	 eax, DWORD PTR _atl__sp
  03418	2b 05 00 00 00
	00		 sub	 eax, DWORD PTR _atl__sk
  0341e	c1 f8 02	 sar	 eax, 2
  03421	83 f8 02	 cmp	 eax, 2
  03424	73 07		 jae	 SHORT $LN1@P_asin
  03426	e8 00 00 00 00	 call	 _atl__Esu
  0342b	eb 20		 jmp	 SHORT $LN2@P_asin
$LN1@P_asin:
  0342d	8b 0d 00 00 00
	00		 mov	 ecx, DWORD PTR _atl__sp
  03433	83 ec 08	 sub	 esp, 8
  03436	dd 41 f8	 fld	 QWORD PTR [ecx-8]
  03439	dd 1c 24	 fstp	 QWORD PTR [esp]
  0343c	e8 00 00 00 00	 call	 _asin
  03441	83 c4 08	 add	 esp, 8
  03444	8b 15 00 00 00
	00		 mov	 edx, DWORD PTR _atl__sp
  0344a	dd 5a f8	 fstp	 QWORD PTR [edx-8]
$LN2@P_asin:

; 1391 : }

  0344d	5d		 pop	 ebp
  0344e	c3		 ret	 0
_P_asin	ENDP
_TEXT	ENDS
EXTRN	_atan:PROC
; Function compile flags: /Odtp
_TEXT	SEGMENT
_P_atan	PROC

; 1394 : {

  03450	55		 push	 ebp
  03451	8b ec		 mov	 ebp, esp

; 1395 :     Mathfunc(atan);

  03453	a1 00 00 00 00	 mov	 eax, DWORD PTR _atl__sp
  03458	2b 05 00 00 00
	00		 sub	 eax, DWORD PTR _atl__sk
  0345e	c1 f8 02	 sar	 eax, 2
  03461	83 f8 02	 cmp	 eax, 2
  03464	73 07		 jae	 SHORT $LN1@P_atan
  03466	e8 00 00 00 00	 call	 _atl__Esu
  0346b	eb 20		 jmp	 SHORT $LN2@P_atan
$LN1@P_atan:
  0346d	8b 0d 00 00 00
	00		 mov	 ecx, DWORD PTR _atl__sp
  03473	83 ec 08	 sub	 esp, 8
  03476	dd 41 f8	 fld	 QWORD PTR [ecx-8]
  03479	dd 1c 24	 fstp	 QWORD PTR [esp]
  0347c	e8 00 00 00 00	 call	 _atan
  03481	83 c4 08	 add	 esp, 8
  03484	8b 15 00 00 00
	00		 mov	 edx, DWORD PTR _atl__sp
  0348a	dd 5a f8	 fstp	 QWORD PTR [edx-8]
$LN2@P_atan:

; 1396 : }

  0348d	5d		 pop	 ebp
  0348e	c3		 ret	 0
_P_atan	ENDP
_TEXT	ENDS
EXTRN	_atan2:PROC
; Function compile flags: /Odtp
_TEXT	SEGMENT
_P_atan2 PROC

; 1399 : {

  03490	55		 push	 ebp
  03491	8b ec		 mov	 ebp, esp

; 1400 :     Sl(2 * Realsize);

  03493	a1 00 00 00 00	 mov	 eax, DWORD PTR _atl__sp
  03498	2b 05 00 00 00
	00		 sub	 eax, DWORD PTR _atl__sk
  0349e	c1 f8 02	 sar	 eax, 2
  034a1	83 f8 04	 cmp	 eax, 4
  034a4	73 07		 jae	 SHORT $LN1@P_atan2@2
  034a6	e8 00 00 00 00	 call	 _atl__Esu
  034ab	eb 3d		 jmp	 SHORT $LN2@P_atan2@2
$LN1@P_atan2@2:

; 1401 :     SREAL1(atan2(REAL1, REAL0));

  034ad	8b 0d 00 00 00
	00		 mov	 ecx, DWORD PTR _atl__sp
  034b3	83 ec 08	 sub	 esp, 8
  034b6	dd 41 f8	 fld	 QWORD PTR [ecx-8]
  034b9	dd 1c 24	 fstp	 QWORD PTR [esp]
  034bc	8b 15 00 00 00
	00		 mov	 edx, DWORD PTR _atl__sp
  034c2	83 ec 08	 sub	 esp, 8
  034c5	dd 42 f0	 fld	 QWORD PTR [edx-16]
  034c8	dd 1c 24	 fstp	 QWORD PTR [esp]
  034cb	e8 00 00 00 00	 call	 _atan2
  034d0	83 c4 10	 add	 esp, 16			; 00000010H
  034d3	a1 00 00 00 00	 mov	 eax, DWORD PTR _atl__sp
  034d8	dd 58 f0	 fstp	 QWORD PTR [eax-16]

; 1402 :     Realpop;

  034db	8b 0d 00 00 00
	00		 mov	 ecx, DWORD PTR _atl__sp
  034e1	83 e9 08	 sub	 ecx, 8
  034e4	89 0d 00 00 00
	00		 mov	 DWORD PTR _atl__sp, ecx
$LN2@P_atan2@2:

; 1403 : }

  034ea	5d		 pop	 ebp
  034eb	c3		 ret	 0
_P_atan2 ENDP
_TEXT	ENDS
EXTRN	_cos:PROC
; Function compile flags: /Odtp
_TEXT	SEGMENT
_P_cos	PROC

; 1406 : {

  034f0	55		 push	 ebp
  034f1	8b ec		 mov	 ebp, esp

; 1407 :     Mathfunc(cos);

  034f3	a1 00 00 00 00	 mov	 eax, DWORD PTR _atl__sp
  034f8	2b 05 00 00 00
	00		 sub	 eax, DWORD PTR _atl__sk
  034fe	c1 f8 02	 sar	 eax, 2
  03501	83 f8 02	 cmp	 eax, 2
  03504	73 07		 jae	 SHORT $LN1@P_cos
  03506	e8 00 00 00 00	 call	 _atl__Esu
  0350b	eb 20		 jmp	 SHORT $LN2@P_cos
$LN1@P_cos:
  0350d	8b 0d 00 00 00
	00		 mov	 ecx, DWORD PTR _atl__sp
  03513	83 ec 08	 sub	 esp, 8
  03516	dd 41 f8	 fld	 QWORD PTR [ecx-8]
  03519	dd 1c 24	 fstp	 QWORD PTR [esp]
  0351c	e8 00 00 00 00	 call	 _cos
  03521	83 c4 08	 add	 esp, 8
  03524	8b 15 00 00 00
	00		 mov	 edx, DWORD PTR _atl__sp
  0352a	dd 5a f8	 fstp	 QWORD PTR [edx-8]
$LN2@P_cos:

; 1408 : }

  0352d	5d		 pop	 ebp
  0352e	c3		 ret	 0
_P_cos	ENDP
_TEXT	ENDS
EXTRN	_exp:PROC
; Function compile flags: /Odtp
_TEXT	SEGMENT
_P_exp	PROC

; 1411 : {

  03530	55		 push	 ebp
  03531	8b ec		 mov	 ebp, esp

; 1412 :     Mathfunc(exp);

  03533	a1 00 00 00 00	 mov	 eax, DWORD PTR _atl__sp
  03538	2b 05 00 00 00
	00		 sub	 eax, DWORD PTR _atl__sk
  0353e	c1 f8 02	 sar	 eax, 2
  03541	83 f8 02	 cmp	 eax, 2
  03544	73 07		 jae	 SHORT $LN1@P_exp
  03546	e8 00 00 00 00	 call	 _atl__Esu
  0354b	eb 20		 jmp	 SHORT $LN2@P_exp
$LN1@P_exp:
  0354d	8b 0d 00 00 00
	00		 mov	 ecx, DWORD PTR _atl__sp
  03553	83 ec 08	 sub	 esp, 8
  03556	dd 41 f8	 fld	 QWORD PTR [ecx-8]
  03559	dd 1c 24	 fstp	 QWORD PTR [esp]
  0355c	e8 00 00 00 00	 call	 _exp
  03561	83 c4 08	 add	 esp, 8
  03564	8b 15 00 00 00
	00		 mov	 edx, DWORD PTR _atl__sp
  0356a	dd 5a f8	 fstp	 QWORD PTR [edx-8]
$LN2@P_exp:

; 1413 : }

  0356d	5d		 pop	 ebp
  0356e	c3		 ret	 0
_P_exp	ENDP
_TEXT	ENDS
EXTRN	_log:PROC
; Function compile flags: /Odtp
_TEXT	SEGMENT
_P_log	PROC

; 1416 : {

  03570	55		 push	 ebp
  03571	8b ec		 mov	 ebp, esp

; 1417 :     Mathfunc(log);

  03573	a1 00 00 00 00	 mov	 eax, DWORD PTR _atl__sp
  03578	2b 05 00 00 00
	00		 sub	 eax, DWORD PTR _atl__sk
  0357e	c1 f8 02	 sar	 eax, 2
  03581	83 f8 02	 cmp	 eax, 2
  03584	73 07		 jae	 SHORT $LN1@P_log
  03586	e8 00 00 00 00	 call	 _atl__Esu
  0358b	eb 20		 jmp	 SHORT $LN2@P_log
$LN1@P_log:
  0358d	8b 0d 00 00 00
	00		 mov	 ecx, DWORD PTR _atl__sp
  03593	83 ec 08	 sub	 esp, 8
  03596	dd 41 f8	 fld	 QWORD PTR [ecx-8]
  03599	dd 1c 24	 fstp	 QWORD PTR [esp]
  0359c	e8 00 00 00 00	 call	 _log
  035a1	83 c4 08	 add	 esp, 8
  035a4	8b 15 00 00 00
	00		 mov	 edx, DWORD PTR _atl__sp
  035aa	dd 5a f8	 fstp	 QWORD PTR [edx-8]
$LN2@P_log:

; 1418 : }

  035ad	5d		 pop	 ebp
  035ae	c3		 ret	 0
_P_log	ENDP
_TEXT	ENDS
EXTRN	_pow:PROC
; Function compile flags: /Odtp
_TEXT	SEGMENT
_P_pow	PROC

; 1421 : {

  035b0	55		 push	 ebp
  035b1	8b ec		 mov	 ebp, esp

; 1422 :     Sl(2 * Realsize);

  035b3	a1 00 00 00 00	 mov	 eax, DWORD PTR _atl__sp
  035b8	2b 05 00 00 00
	00		 sub	 eax, DWORD PTR _atl__sk
  035be	c1 f8 02	 sar	 eax, 2
  035c1	83 f8 04	 cmp	 eax, 4
  035c4	73 07		 jae	 SHORT $LN1@P_pow
  035c6	e8 00 00 00 00	 call	 _atl__Esu
  035cb	eb 3d		 jmp	 SHORT $LN2@P_pow
$LN1@P_pow:

; 1423 :     SREAL1(pow(REAL1, REAL0));

  035cd	8b 0d 00 00 00
	00		 mov	 ecx, DWORD PTR _atl__sp
  035d3	83 ec 08	 sub	 esp, 8
  035d6	dd 41 f8	 fld	 QWORD PTR [ecx-8]
  035d9	dd 1c 24	 fstp	 QWORD PTR [esp]
  035dc	8b 15 00 00 00
	00		 mov	 edx, DWORD PTR _atl__sp
  035e2	83 ec 08	 sub	 esp, 8
  035e5	dd 42 f0	 fld	 QWORD PTR [edx-16]
  035e8	dd 1c 24	 fstp	 QWORD PTR [esp]
  035eb	e8 00 00 00 00	 call	 _pow
  035f0	83 c4 10	 add	 esp, 16			; 00000010H
  035f3	a1 00 00 00 00	 mov	 eax, DWORD PTR _atl__sp
  035f8	dd 58 f0	 fstp	 QWORD PTR [eax-16]

; 1424 :     Realpop;

  035fb	8b 0d 00 00 00
	00		 mov	 ecx, DWORD PTR _atl__sp
  03601	83 e9 08	 sub	 ecx, 8
  03604	89 0d 00 00 00
	00		 mov	 DWORD PTR _atl__sp, ecx
$LN2@P_pow:

; 1425 : }

  0360a	5d		 pop	 ebp
  0360b	c3		 ret	 0
_P_pow	ENDP
_TEXT	ENDS
EXTRN	_sin:PROC
; Function compile flags: /Odtp
_TEXT	SEGMENT
_P_sin	PROC

; 1428 : {

  03610	55		 push	 ebp
  03611	8b ec		 mov	 ebp, esp

; 1429 :     Mathfunc(sin);

  03613	a1 00 00 00 00	 mov	 eax, DWORD PTR _atl__sp
  03618	2b 05 00 00 00
	00		 sub	 eax, DWORD PTR _atl__sk
  0361e	c1 f8 02	 sar	 eax, 2
  03621	83 f8 02	 cmp	 eax, 2
  03624	73 07		 jae	 SHORT $LN1@P_sin
  03626	e8 00 00 00 00	 call	 _atl__Esu
  0362b	eb 20		 jmp	 SHORT $LN2@P_sin
$LN1@P_sin:
  0362d	8b 0d 00 00 00
	00		 mov	 ecx, DWORD PTR _atl__sp
  03633	83 ec 08	 sub	 esp, 8
  03636	dd 41 f8	 fld	 QWORD PTR [ecx-8]
  03639	dd 1c 24	 fstp	 QWORD PTR [esp]
  0363c	e8 00 00 00 00	 call	 _sin
  03641	83 c4 08	 add	 esp, 8
  03644	8b 15 00 00 00
	00		 mov	 edx, DWORD PTR _atl__sp
  0364a	dd 5a f8	 fstp	 QWORD PTR [edx-8]
$LN2@P_sin:

; 1430 : }

  0364d	5d		 pop	 ebp
  0364e	c3		 ret	 0
_P_sin	ENDP
_TEXT	ENDS
EXTRN	_sqrt:PROC
; Function compile flags: /Odtp
_TEXT	SEGMENT
_P_sqrt	PROC

; 1433 : {

  03650	55		 push	 ebp
  03651	8b ec		 mov	 ebp, esp

; 1434 :     Mathfunc(sqrt);

  03653	a1 00 00 00 00	 mov	 eax, DWORD PTR _atl__sp
  03658	2b 05 00 00 00
	00		 sub	 eax, DWORD PTR _atl__sk
  0365e	c1 f8 02	 sar	 eax, 2
  03661	83 f8 02	 cmp	 eax, 2
  03664	73 07		 jae	 SHORT $LN1@P_sqrt
  03666	e8 00 00 00 00	 call	 _atl__Esu
  0366b	eb 20		 jmp	 SHORT $LN2@P_sqrt
$LN1@P_sqrt:
  0366d	8b 0d 00 00 00
	00		 mov	 ecx, DWORD PTR _atl__sp
  03673	83 ec 08	 sub	 esp, 8
  03676	dd 41 f8	 fld	 QWORD PTR [ecx-8]
  03679	dd 1c 24	 fstp	 QWORD PTR [esp]
  0367c	e8 00 00 00 00	 call	 _sqrt
  03681	83 c4 08	 add	 esp, 8
  03684	8b 15 00 00 00
	00		 mov	 edx, DWORD PTR _atl__sp
  0368a	dd 5a f8	 fstp	 QWORD PTR [edx-8]
$LN2@P_sqrt:

; 1435 : }

  0368d	5d		 pop	 ebp
  0368e	c3		 ret	 0
_P_sqrt	ENDP
_TEXT	ENDS
EXTRN	_tan:PROC
; Function compile flags: /Odtp
_TEXT	SEGMENT
_P_tan	PROC

; 1438 : {

  03690	55		 push	 ebp
  03691	8b ec		 mov	 ebp, esp

; 1439 :     Mathfunc(tan);

  03693	a1 00 00 00 00	 mov	 eax, DWORD PTR _atl__sp
  03698	2b 05 00 00 00
	00		 sub	 eax, DWORD PTR _atl__sk
  0369e	c1 f8 02	 sar	 eax, 2
  036a1	83 f8 02	 cmp	 eax, 2
  036a4	73 07		 jae	 SHORT $LN1@P_tan
  036a6	e8 00 00 00 00	 call	 _atl__Esu
  036ab	eb 20		 jmp	 SHORT $LN2@P_tan
$LN1@P_tan:
  036ad	8b 0d 00 00 00
	00		 mov	 ecx, DWORD PTR _atl__sp
  036b3	83 ec 08	 sub	 esp, 8
  036b6	dd 41 f8	 fld	 QWORD PTR [ecx-8]
  036b9	dd 1c 24	 fstp	 QWORD PTR [esp]
  036bc	e8 00 00 00 00	 call	 _tan
  036c1	83 c4 08	 add	 esp, 8
  036c4	8b 15 00 00 00
	00		 mov	 edx, DWORD PTR _atl__sp
  036ca	dd 5a f8	 fstp	 QWORD PTR [edx-8]
$LN2@P_tan:

; 1440 : }

  036cd	5d		 pop	 ebp
  036ce	c3		 ret	 0
_P_tan	ENDP
; Function compile flags: /Odtp
tv71 = -4						; size = 4
_P_dot	PROC

; 1450 : {

  036d0	55		 push	 ebp
  036d1	8b ec		 mov	 ebp, esp
  036d3	51		 push	 ecx

; 1451 :     Sl(1);

  036d4	a1 00 00 00 00	 mov	 eax, DWORD PTR _atl__sp
  036d9	2b 05 00 00 00
	00		 sub	 eax, DWORD PTR _atl__sk
  036df	c1 f8 02	 sar	 eax, 2
  036e2	83 f8 01	 cmp	 eax, 1
  036e5	7d 07		 jge	 SHORT $LN1@P_dot
  036e7	e8 00 00 00 00	 call	 _atl__Esu
  036ec	eb 3e		 jmp	 SHORT $LN2@P_dot
$LN1@P_dot:

; 1452 :     V printf(base == 16 ? "%lX" : "%ld ", S0);

  036ee	83 3d 00 00 00
	00 10		 cmp	 DWORD PTR _base, 16	; 00000010H
  036f5	75 09		 jne	 SHORT $LN4@P_dot
  036f7	c7 45 fc 00 00
	00 00		 mov	 DWORD PTR tv71[ebp], OFFSET $SG83790
  036fe	eb 07		 jmp	 SHORT $LN5@P_dot
$LN4@P_dot:
  03700	c7 45 fc 00 00
	00 00		 mov	 DWORD PTR tv71[ebp], OFFSET $SG83791
$LN5@P_dot:
  03707	8b 0d 00 00 00
	00		 mov	 ecx, DWORD PTR _atl__sp
  0370d	8b 51 fc	 mov	 edx, DWORD PTR [ecx-4]
  03710	52		 push	 edx
  03711	8b 45 fc	 mov	 eax, DWORD PTR tv71[ebp]
  03714	50		 push	 eax
  03715	e8 00 00 00 00	 call	 _printf
  0371a	83 c4 08	 add	 esp, 8

; 1453 :     Pop;

  0371d	8b 0d 00 00 00
	00		 mov	 ecx, DWORD PTR _atl__sp
  03723	83 e9 04	 sub	 ecx, 4
  03726	89 0d 00 00 00
	00		 mov	 DWORD PTR _atl__sp, ecx
$LN2@P_dot:

; 1454 : }

  0372c	8b e5		 mov	 esp, ebp
  0372e	5d		 pop	 ebp
  0372f	c3		 ret	 0
_P_dot	ENDP
; Function compile flags: /Odtp
tv76 = -4						; size = 4
_P_question PROC

; 1457 : {

  03730	55		 push	 ebp
  03731	8b ec		 mov	 ebp, esp
  03733	51		 push	 ecx

; 1458 :     Sl(1);

  03734	a1 00 00 00 00	 mov	 eax, DWORD PTR _atl__sp
  03739	2b 05 00 00 00
	00		 sub	 eax, DWORD PTR _atl__sk
  0373f	c1 f8 02	 sar	 eax, 2
  03742	83 f8 01	 cmp	 eax, 1
  03745	7d 07		 jge	 SHORT $LN3@P_question
  03747	e8 00 00 00 00	 call	 _atl__Esu
  0374c	eb 66		 jmp	 SHORT $LN4@P_question
$LN3@P_question:

; 1459 :     Hpc(S0);

  0374e	8b 0d 00 00 00
	00		 mov	 ecx, DWORD PTR _atl__sp
  03754	8b 51 fc	 mov	 edx, DWORD PTR [ecx-4]
  03757	3b 15 00 00 00
	00		 cmp	 edx, DWORD PTR _atl__hs
  0375d	72 10		 jb	 SHORT $LN1@P_question
  0375f	a1 00 00 00 00	 mov	 eax, DWORD PTR _atl__sp
  03764	8b 48 fc	 mov	 ecx, DWORD PTR [eax-4]
  03767	3b 0d 00 00 00
	00		 cmp	 ecx, DWORD PTR _atl__ht
  0376d	72 07		 jb	 SHORT $LN2@P_question
$LN1@P_question:
  0376f	e8 00 00 00 00	 call	 _atl__Ebp
  03774	eb 3e		 jmp	 SHORT $LN4@P_question
$LN2@P_question:

; 1460 :     V printf(base == 16 ? "%lX" : "%ld ", *((stackitem *) S0));

  03776	83 3d 00 00 00
	00 10		 cmp	 DWORD PTR _base, 16	; 00000010H
  0377d	75 09		 jne	 SHORT $LN6@P_question
  0377f	c7 45 fc 00 00
	00 00		 mov	 DWORD PTR tv76[ebp], OFFSET $SG83801
  03786	eb 07		 jmp	 SHORT $LN7@P_question
$LN6@P_question:
  03788	c7 45 fc 00 00
	00 00		 mov	 DWORD PTR tv76[ebp], OFFSET $SG83802
$LN7@P_question:
  0378f	8b 15 00 00 00
	00		 mov	 edx, DWORD PTR _atl__sp
  03795	8b 42 fc	 mov	 eax, DWORD PTR [edx-4]
  03798	8b 08		 mov	 ecx, DWORD PTR [eax]
  0379a	51		 push	 ecx
  0379b	8b 55 fc	 mov	 edx, DWORD PTR tv76[ebp]
  0379e	52		 push	 edx
  0379f	e8 00 00 00 00	 call	 _printf
  037a4	83 c4 08	 add	 esp, 8

; 1461 :     Pop;

  037a7	a1 00 00 00 00	 mov	 eax, DWORD PTR _atl__sp
  037ac	83 e8 04	 sub	 eax, 4
  037af	a3 00 00 00 00	 mov	 DWORD PTR _atl__sp, eax
$LN4@P_question:

; 1462 : }

  037b4	8b e5		 mov	 esp, ebp
  037b6	5d		 pop	 ebp
  037b7	c3		 ret	 0
_P_question ENDP
; Function compile flags: /Odtp
_P_cr	PROC

; 1465 : {

  037c0	55		 push	 ebp
  037c1	8b ec		 mov	 ebp, esp

; 1466 :     V printf("\n");

  037c3	68 00 00 00 00	 push	 OFFSET $SG83806
  037c8	e8 00 00 00 00	 call	 _printf
  037cd	83 c4 04	 add	 esp, 4

; 1467 : }

  037d0	5d		 pop	 ebp
  037d1	c3		 ret	 0
_P_cr	ENDP
; Function compile flags: /Odtp
tv72 = -8						; size = 4
_tsp$ = -4						; size = 4
_P_dots	PROC

; 1470 : {

  037e0	55		 push	 ebp
  037e1	8b ec		 mov	 ebp, esp
  037e3	83 ec 08	 sub	 esp, 8

; 1471 :     stackitem *tsp;
; 1472 : 
; 1473 :     V printf("Stack: ");

  037e6	68 00 00 00 00	 push	 OFFSET $SG83811
  037eb	e8 00 00 00 00	 call	 _printf
  037f0	83 c4 04	 add	 esp, 4

; 1474 :     if (stk == stackbot)

  037f3	a1 00 00 00 00	 mov	 eax, DWORD PTR _atl__sp
  037f8	3b 05 00 00 00
	00		 cmp	 eax, DWORD PTR _atl__sb
  037fe	75 0f		 jne	 SHORT $LN5@P_dots

; 1475 :         V printf("Empty.");

  03800	68 00 00 00 00	 push	 OFFSET $SG83814
  03805	e8 00 00 00 00	 call	 _printf
  0380a	83 c4 04	 add	 esp, 4

; 1476 :     else {

  0380d	eb 4c		 jmp	 SHORT $LN6@P_dots
$LN5@P_dots:

; 1477 : 	for (tsp = stack; tsp < stk; tsp++) {

  0380f	8b 0d 00 00 00
	00		 mov	 ecx, DWORD PTR _atl__sk
  03815	89 4d fc	 mov	 DWORD PTR _tsp$[ebp], ecx
  03818	eb 09		 jmp	 SHORT $LN3@P_dots
$LN2@P_dots:
  0381a	8b 55 fc	 mov	 edx, DWORD PTR _tsp$[ebp]
  0381d	83 c2 04	 add	 edx, 4
  03820	89 55 fc	 mov	 DWORD PTR _tsp$[ebp], edx
$LN3@P_dots:
  03823	8b 45 fc	 mov	 eax, DWORD PTR _tsp$[ebp]
  03826	3b 05 00 00 00
	00		 cmp	 eax, DWORD PTR _atl__sp
  0382c	73 2d		 jae	 SHORT $LN6@P_dots

; 1478 :             V printf(base == 16 ? "%lX" : "%ld ", *tsp);

  0382e	83 3d 00 00 00
	00 10		 cmp	 DWORD PTR _base, 16	; 00000010H
  03835	75 09		 jne	 SHORT $LN8@P_dots
  03837	c7 45 f8 00 00
	00 00		 mov	 DWORD PTR tv72[ebp], OFFSET $SG83820
  0383e	eb 07		 jmp	 SHORT $LN9@P_dots
$LN8@P_dots:
  03840	c7 45 f8 00 00
	00 00		 mov	 DWORD PTR tv72[ebp], OFFSET $SG83821
$LN9@P_dots:
  03847	8b 4d fc	 mov	 ecx, DWORD PTR _tsp$[ebp]
  0384a	8b 11		 mov	 edx, DWORD PTR [ecx]
  0384c	52		 push	 edx
  0384d	8b 45 f8	 mov	 eax, DWORD PTR tv72[ebp]
  03850	50		 push	 eax
  03851	e8 00 00 00 00	 call	 _printf
  03856	83 c4 08	 add	 esp, 8

; 1479 : 	}

  03859	eb bf		 jmp	 SHORT $LN2@P_dots
$LN6@P_dots:

; 1480 :     }
; 1481 : }

  0385b	8b e5		 mov	 esp, ebp
  0385d	5d		 pop	 ebp
  0385e	c3		 ret	 0
_P_dots	ENDP
_TEXT	ENDS
_BSS	SEGMENT
_s_dotparen DD	01H DUP (?)
; Function compile flags: /Odtp
_BSS	ENDS
_TEXT	SEGMENT
_P_dotquote PROC

; 1484 : {

  03860	55		 push	 ebp
  03861	8b ec		 mov	 ebp, esp

; 1485 :     Compiling;

  03863	a1 00 00 00 00	 mov	 eax, DWORD PTR _atl__hb
  03868	83 38 00	 cmp	 DWORD PTR [eax], 0
  0386b	75 07		 jne	 SHORT $LN3@P_dotquote
  0386d	e8 00 00 00 00	 call	 _notcomp
  03872	eb 5c		 jmp	 SHORT $LN4@P_dotquote
$LN3@P_dotquote:

; 1486 :     stringlit = True;		      /* Set string literal expected */

  03874	c7 05 00 00 00
	00 01 00 00 00	 mov	 DWORD PTR _stringlit, 1

; 1487 :     Compconst(s_dotparen);	      /* Compile .( word */

  0387e	8b 0d 00 00 00
	00		 mov	 ecx, DWORD PTR _atl__hp
  03884	83 c1 04	 add	 ecx, 4
  03887	3b 0d 00 00 00
	00		 cmp	 ecx, DWORD PTR _atl__hx
  0388d	76 0f		 jbe	 SHORT $LN2@P_dotquote
  0388f	8b 15 00 00 00
	00		 mov	 edx, DWORD PTR _atl__hp
  03895	83 c2 04	 add	 edx, 4
  03898	89 15 00 00 00
	00		 mov	 DWORD PTR _atl__hx, edx
$LN2@P_dotquote:
  0389e	a1 00 00 00 00	 mov	 eax, DWORD PTR _atl__hp
  038a3	83 c0 04	 add	 eax, 4
  038a6	3b 05 00 00 00
	00		 cmp	 eax, DWORD PTR _atl__ht
  038ac	76 07		 jbe	 SHORT $LN1@P_dotquote
  038ae	e8 00 00 00 00	 call	 _atl__Eho
  038b3	eb 1b		 jmp	 SHORT $LN4@P_dotquote
$LN1@P_dotquote:
  038b5	8b 0d 00 00 00
	00		 mov	 ecx, DWORD PTR _atl__hp
  038bb	8b 15 00 00 00
	00		 mov	 edx, DWORD PTR _s_dotparen
  038c1	89 11		 mov	 DWORD PTR [ecx], edx
  038c3	a1 00 00 00 00	 mov	 eax, DWORD PTR _atl__hp
  038c8	83 c0 04	 add	 eax, 4
  038cb	a3 00 00 00 00	 mov	 DWORD PTR _atl__hp, eax
$LN4@P_dotquote:

; 1488 : }

  038d0	5d		 pop	 ebp
  038d1	c3		 ret	 0
_P_dotquote ENDP
; Function compile flags: /Odtp
_P_dotparen PROC

; 1491 : {

  038e0	55		 push	 ebp
  038e1	8b ec		 mov	 ebp, esp

; 1492 :     if (ip == NULL) {		      /* If interpreting */

  038e3	83 3d 00 00 00
	00 00		 cmp	 DWORD PTR _atl__ip, 0
  038ea	75 0c		 jne	 SHORT $LN2@P_dotparen

; 1493 : 	stringlit = True;	      /* Set to print next string constant */

  038ec	c7 05 00 00 00
	00 01 00 00 00	 mov	 DWORD PTR _stringlit, 1

; 1494 :     } else {			      /* Otherwise, */

  038f6	eb 2d		 jmp	 SHORT $LN3@P_dotparen
$LN2@P_dotparen:

; 1495 :         V printf("%s", ((char *) ip) + 1); /* print string literal

  038f8	a1 00 00 00 00	 mov	 eax, DWORD PTR _atl__ip
  038fd	83 c0 01	 add	 eax, 1
  03900	50		 push	 eax
  03901	68 00 00 00 00	 push	 OFFSET $SG83835
  03906	e8 00 00 00 00	 call	 _printf
  0390b	83 c4 08	 add	 esp, 8

; 1496 : 					 in in-line code. */
; 1497 : 	Skipstring;		      /* And advance IP past it */

  0390e	8b 0d 00 00 00
	00		 mov	 ecx, DWORD PTR _atl__ip
  03914	0f be 11	 movsx	 edx, BYTE PTR [ecx]
  03917	a1 00 00 00 00	 mov	 eax, DWORD PTR _atl__ip
  0391c	8d 0c 90	 lea	 ecx, DWORD PTR [eax+edx*4]
  0391f	89 0d 00 00 00
	00		 mov	 DWORD PTR _atl__ip, ecx
$LN3@P_dotparen:

; 1498 :     }
; 1499 : }

  03925	5d		 pop	 ebp
  03926	c3		 ret	 0
_P_dotparen ENDP
; Function compile flags: /Odtp
_P_type PROC

; 1502 : {

  03930	55		 push	 ebp
  03931	8b ec		 mov	 ebp, esp

; 1503 :     Sl(1);

  03933	a1 00 00 00 00	 mov	 eax, DWORD PTR _atl__sp
  03938	2b 05 00 00 00
	00		 sub	 eax, DWORD PTR _atl__sk
  0393e	c1 f8 02	 sar	 eax, 2
  03941	83 f8 01	 cmp	 eax, 1
  03944	7d 07		 jge	 SHORT $LN3@P_type
  03946	e8 00 00 00 00	 call	 _atl__Esu
  0394b	eb 4e		 jmp	 SHORT $LN4@P_type
$LN3@P_type:

; 1504 :     Hpc(S0);

  0394d	8b 0d 00 00 00
	00		 mov	 ecx, DWORD PTR _atl__sp
  03953	8b 51 fc	 mov	 edx, DWORD PTR [ecx-4]
  03956	3b 15 00 00 00
	00		 cmp	 edx, DWORD PTR _atl__hs
  0395c	72 10		 jb	 SHORT $LN1@P_type
  0395e	a1 00 00 00 00	 mov	 eax, DWORD PTR _atl__sp
  03963	8b 48 fc	 mov	 ecx, DWORD PTR [eax-4]
  03966	3b 0d 00 00 00
	00		 cmp	 ecx, DWORD PTR _atl__ht
  0396c	72 07		 jb	 SHORT $LN2@P_type
$LN1@P_type:
  0396e	e8 00 00 00 00	 call	 _atl__Ebp
  03973	eb 26		 jmp	 SHORT $LN4@P_type
$LN2@P_type:

; 1505 :     V printf("%s", (char *) S0);

  03975	8b 15 00 00 00
	00		 mov	 edx, DWORD PTR _atl__sp
  0397b	8b 42 fc	 mov	 eax, DWORD PTR [edx-4]
  0397e	50		 push	 eax
  0397f	68 00 00 00 00	 push	 OFFSET $SG83846
  03984	e8 00 00 00 00	 call	 _printf
  03989	83 c4 08	 add	 esp, 8

; 1506 :     Pop;

  0398c	8b 0d 00 00 00
	00		 mov	 ecx, DWORD PTR _atl__sp
  03992	83 e9 04	 sub	 ecx, 4
  03995	89 0d 00 00 00
	00		 mov	 DWORD PTR _atl__sp, ecx
$LN4@P_type:

; 1507 : }

  0399b	5d		 pop	 ebp
  0399c	c3		 ret	 0
_P_type	ENDP
; Function compile flags: /Odtp
_dw$ = -8						; size = 4
_key$ = -4						; size = 4
_P_words PROC

; 1510 : {

  039a0	55		 push	 ebp
  039a1	8b ec		 mov	 ebp, esp
  039a3	83 ec 08	 sub	 esp, 8

; 1511 : #ifndef Keyhit
; 1512 :     int key = 0;

  039a6	c7 45 fc 00 00
	00 00		 mov	 DWORD PTR _key$[ebp], 0

; 1513 : #endif
; 1514 :     dictword *dw = dict;

  039ad	a1 00 00 00 00	 mov	 eax, DWORD PTR _atl__dh
  039b2	89 45 f8	 mov	 DWORD PTR _dw$[ebp], eax
$LN3@P_words:

; 1515 : 
; 1516 :     while (dw != NULL) {

  039b5	83 7d f8 00	 cmp	 DWORD PTR _dw$[ebp], 0
  039b9	74 32		 je	 SHORT $LN2@P_words

; 1517 : 
; 1518 :         V printf("\n%s", dw->wname + 1);

  039bb	8b 4d f8	 mov	 ecx, DWORD PTR _dw$[ebp]
  039be	8b 51 04	 mov	 edx, DWORD PTR [ecx+4]
  039c1	83 c2 01	 add	 edx, 1
  039c4	52		 push	 edx
  039c5	68 00 00 00 00	 push	 OFFSET $SG83856
  039ca	e8 00 00 00 00	 call	 _printf
  039cf	83 c4 08	 add	 esp, 8

; 1519 : 	dw = dw->wnext;

  039d2	8b 45 f8	 mov	 eax, DWORD PTR _dw$[ebp]
  039d5	8b 08		 mov	 ecx, DWORD PTR [eax]
  039d7	89 4d f8	 mov	 DWORD PTR _dw$[ebp], ecx

; 1520 : #ifdef Keyhit
; 1521 : 	if (kbquit()) {
; 1522 : 	    break;
; 1523 : 	}
; 1524 : #else
; 1525 :         /* If this system can't trap keystrokes, just stop the WORDS
; 1526 : 	   listing after 20 words. */
; 1527 : 	if (++key >= 20)

  039da	8b 55 fc	 mov	 edx, DWORD PTR _key$[ebp]
  039dd	83 c2 01	 add	 edx, 1
  039e0	89 55 fc	 mov	 DWORD PTR _key$[ebp], edx
  039e3	83 7d fc 14	 cmp	 DWORD PTR _key$[ebp], 20 ; 00000014H
  039e7	7c 02		 jl	 SHORT $LN1@P_words

; 1528 : 	    break;

  039e9	eb 02		 jmp	 SHORT $LN2@P_words
$LN1@P_words:

; 1529 : #endif
; 1530 :     }

  039eb	eb c8		 jmp	 SHORT $LN3@P_words
$LN2@P_words:

; 1531 :     V printf("\n");

  039ed	68 00 00 00 00	 push	 OFFSET $SG83859
  039f2	e8 00 00 00 00	 call	 _printf
  039f7	83 c4 04	 add	 esp, 4

; 1532 : }

  039fa	8b e5		 mov	 esp, ebp
  039fc	5d		 pop	 ebp
  039fd	c3		 ret	 0
_P_words ENDP
; Function compile flags: /Odtp
_P_file PROC

; 1538 : {

  03a00	55		 push	 ebp
  03a01	8b ec		 mov	 ebp, esp

; 1539 :     Ho(2);

  03a03	a1 00 00 00 00	 mov	 eax, DWORD PTR _atl__hp
  03a08	83 c0 08	 add	 eax, 8
  03a0b	3b 05 00 00 00
	00		 cmp	 eax, DWORD PTR _atl__hx
  03a11	76 0f		 jbe	 SHORT $LN2@P_file
  03a13	8b 0d 00 00 00
	00		 mov	 ecx, DWORD PTR _atl__hp
  03a19	83 c1 08	 add	 ecx, 8
  03a1c	89 0d 00 00 00
	00		 mov	 DWORD PTR _atl__hx, ecx
$LN2@P_file:
  03a22	8b 15 00 00 00
	00		 mov	 edx, DWORD PTR _atl__hp
  03a28	83 c2 08	 add	 edx, 8
  03a2b	3b 15 00 00 00
	00		 cmp	 edx, DWORD PTR _atl__ht
  03a31	76 07		 jbe	 SHORT $LN1@P_file
  03a33	e8 00 00 00 00	 call	 _atl__Eho
  03a38	eb 38		 jmp	 SHORT $LN3@P_file
$LN1@P_file:

; 1540 :     P_create(); 		      /* Create variable */

  03a3a	e8 00 00 00 00	 call	 _atl__Pcr

; 1541 :     Hstore = FileSent;		      /* Store file sentinel */

  03a3f	a1 00 00 00 00	 mov	 eax, DWORD PTR _atl__hp
  03a44	c7 00 9d df 1f
	83		 mov	 DWORD PTR [eax], -2095063139 ; 831fdf9dH
  03a4a	8b 0d 00 00 00
	00		 mov	 ecx, DWORD PTR _atl__hp
  03a50	83 c1 04	 add	 ecx, 4
  03a53	89 0d 00 00 00
	00		 mov	 DWORD PTR _atl__hp, ecx

; 1542 :     Hstore = 0; 		      /* Mark file not open */

  03a59	8b 15 00 00 00
	00		 mov	 edx, DWORD PTR _atl__hp
  03a5f	c7 02 00 00 00
	00		 mov	 DWORD PTR [edx], 0
  03a65	a1 00 00 00 00	 mov	 eax, DWORD PTR _atl__hp
  03a6a	83 c0 04	 add	 eax, 4
  03a6d	a3 00 00 00 00	 mov	 DWORD PTR _atl__hp, eax
$LN3@P_file:

; 1543 : }

  03a72	5d		 pop	 ebp
  03a73	c3		 ret	 0
_P_file	ENDP
_TEXT	ENDS
EXTRN	_fopen:PROC
; Function compile flags: /Odtp
_TEXT	SEGMENT
_fd$ = -8						; size = 4
_stat$ = -4						; size = 4
_P_fopen PROC

; 1546 : {

  03a80	55		 push	 ebp
  03a81	8b ec		 mov	 ebp, esp
  03a83	83 ec 08	 sub	 esp, 8

; 1547 :     FILE *fd;
; 1548 :     stackitem stat;
; 1549 : 
; 1550 :     Sl(3);

  03a86	a1 00 00 00 00	 mov	 eax, DWORD PTR _atl__sp
  03a8b	2b 05 00 00 00
	00		 sub	 eax, DWORD PTR _atl__sk
  03a91	c1 f8 02	 sar	 eax, 2
  03a94	83 f8 03	 cmp	 eax, 3
  03a97	7d 0a		 jge	 SHORT $LN10@P_fopen
  03a99	e8 00 00 00 00	 call	 _atl__Esu
  03a9e	e9 05 01 00 00	 jmp	 $LN11@P_fopen
$LN10@P_fopen:

; 1551 :     Hpc(S2);

  03aa3	8b 0d 00 00 00
	00		 mov	 ecx, DWORD PTR _atl__sp
  03aa9	8b 51 f4	 mov	 edx, DWORD PTR [ecx-12]
  03aac	3b 15 00 00 00
	00		 cmp	 edx, DWORD PTR _atl__hs
  03ab2	72 10		 jb	 SHORT $LN8@P_fopen
  03ab4	a1 00 00 00 00	 mov	 eax, DWORD PTR _atl__sp
  03ab9	8b 48 f4	 mov	 ecx, DWORD PTR [eax-12]
  03abc	3b 0d 00 00 00
	00		 cmp	 ecx, DWORD PTR _atl__ht
  03ac2	72 0a		 jb	 SHORT $LN9@P_fopen
$LN8@P_fopen:
  03ac4	e8 00 00 00 00	 call	 _atl__Ebp
  03ac9	e9 da 00 00 00	 jmp	 $LN11@P_fopen
$LN9@P_fopen:

; 1552 :     Hpc(S0);

  03ace	8b 15 00 00 00
	00		 mov	 edx, DWORD PTR _atl__sp
  03ad4	8b 42 fc	 mov	 eax, DWORD PTR [edx-4]
  03ad7	3b 05 00 00 00
	00		 cmp	 eax, DWORD PTR _atl__hs
  03add	72 11		 jb	 SHORT $LN6@P_fopen
  03adf	8b 0d 00 00 00
	00		 mov	 ecx, DWORD PTR _atl__sp
  03ae5	8b 51 fc	 mov	 edx, DWORD PTR [ecx-4]
  03ae8	3b 15 00 00 00
	00		 cmp	 edx, DWORD PTR _atl__ht
  03aee	72 0a		 jb	 SHORT $LN7@P_fopen
$LN6@P_fopen:
  03af0	e8 00 00 00 00	 call	 _atl__Ebp
  03af5	e9 ae 00 00 00	 jmp	 $LN11@P_fopen
$LN7@P_fopen:

; 1553 :     Isfile(S0);

  03afa	a1 00 00 00 00	 mov	 eax, DWORD PTR _atl__sp
  03aff	8b 48 fc	 mov	 ecx, DWORD PTR [eax-4]
  03b02	3b 0d 00 00 00
	00		 cmp	 ecx, DWORD PTR _atl__hs
  03b08	72 11		 jb	 SHORT $LN4@P_fopen
  03b0a	8b 15 00 00 00
	00		 mov	 edx, DWORD PTR _atl__sp
  03b10	8b 42 fc	 mov	 eax, DWORD PTR [edx-4]
  03b13	3b 05 00 00 00
	00		 cmp	 eax, DWORD PTR _atl__ht
  03b19	72 0a		 jb	 SHORT $LN5@P_fopen
$LN4@P_fopen:
  03b1b	e8 00 00 00 00	 call	 _atl__Ebp
  03b20	e9 83 00 00 00	 jmp	 $LN11@P_fopen
$LN5@P_fopen:
  03b25	8b 0d 00 00 00
	00		 mov	 ecx, DWORD PTR _atl__sp
  03b2b	8b 51 fc	 mov	 edx, DWORD PTR [ecx-4]
  03b2e	81 3a 9d df 1f
	83		 cmp	 DWORD PTR [edx], -2095063139 ; 831fdf9dH
  03b34	74 0f		 je	 SHORT $LN3@P_fopen
  03b36	68 00 00 00 00	 push	 OFFSET $SG83884
  03b3b	e8 00 00 00 00	 call	 _printf
  03b40	83 c4 04	 add	 esp, 4
  03b43	eb 63		 jmp	 SHORT $LN11@P_fopen
$LN3@P_fopen:

; 1554 :     fd = fopen((char *) S2, fopenmodes[S1]);

  03b45	a1 00 00 00 00	 mov	 eax, DWORD PTR _atl__sp
  03b4a	8b 48 f8	 mov	 ecx, DWORD PTR [eax-8]
  03b4d	8b 14 8d 00 00
	00 00		 mov	 edx, DWORD PTR _fopenmodes[ecx*4]
  03b54	52		 push	 edx
  03b55	a1 00 00 00 00	 mov	 eax, DWORD PTR _atl__sp
  03b5a	8b 48 f4	 mov	 ecx, DWORD PTR [eax-12]
  03b5d	51		 push	 ecx
  03b5e	e8 00 00 00 00	 call	 _fopen
  03b63	83 c4 08	 add	 esp, 8
  03b66	89 45 f8	 mov	 DWORD PTR _fd$[ebp], eax

